
ATMEGA_fw.elf:     file format elf32-avr

Sections:
Idx Name          Size      VMA       LMA       File off  Algn
  0 .data         0000009c  00800100  00002b5e  00002bf2  2**0
                  CONTENTS, ALLOC, LOAD, DATA
  1 .text         00002b5e  00000000  00000000  00000094  2**1
                  CONTENTS, ALLOC, LOAD, READONLY, CODE
  2 .bss          00000663  0080019c  0080019c  00002c8e  2**0
                  ALLOC
  3 .comment      00000030  00000000  00000000  00002c8e  2**0
                  CONTENTS, READONLY
  4 .note.gnu.avr.deviceinfo 0000003c  00000000  00000000  00002cc0  2**2
                  CONTENTS, READONLY
  5 .debug_aranges 000007f8  00000000  00000000  00002cfc  2**0
                  CONTENTS, READONLY, DEBUGGING
  6 .debug_info   00007362  00000000  00000000  000034f4  2**0
                  CONTENTS, READONLY, DEBUGGING
  7 .debug_abbrev 00001f28  00000000  00000000  0000a856  2**0
                  CONTENTS, READONLY, DEBUGGING
  8 .debug_line   00004445  00000000  00000000  0000c77e  2**0
                  CONTENTS, READONLY, DEBUGGING
  9 .debug_frame  00001440  00000000  00000000  00010bc4  2**2
                  CONTENTS, READONLY, DEBUGGING
 10 .debug_str    000019e5  00000000  00000000  00012004  2**0
                  CONTENTS, READONLY, DEBUGGING
 11 .debug_loc    00006197  00000000  00000000  000139e9  2**0
                  CONTENTS, READONLY, DEBUGGING
 12 .debug_ranges 000006f8  00000000  00000000  00019b80  2**0
                  CONTENTS, READONLY, DEBUGGING

Disassembly of section .text:

00000000 <__vectors>:
       0:	55 c0       	rjmp	.+170    	; 0xac <__ctors_end>
       2:	00 00       	nop
       4:	72 c0       	rjmp	.+228    	; 0xea <__bad_interrupt>
       6:	00 00       	nop
       8:	70 c0       	rjmp	.+224    	; 0xea <__bad_interrupt>
       a:	00 00       	nop
       c:	6e c0       	rjmp	.+220    	; 0xea <__bad_interrupt>
       e:	00 00       	nop
      10:	6c c0       	rjmp	.+216    	; 0xea <__bad_interrupt>
      12:	00 00       	nop
      14:	6a c0       	rjmp	.+212    	; 0xea <__bad_interrupt>
      16:	00 00       	nop
      18:	68 c0       	rjmp	.+208    	; 0xea <__bad_interrupt>
      1a:	00 00       	nop
      1c:	66 c0       	rjmp	.+204    	; 0xea <__bad_interrupt>
      1e:	00 00       	nop
      20:	64 c0       	rjmp	.+200    	; 0xea <__bad_interrupt>
      22:	00 00       	nop
      24:	c0 c1       	rjmp	.+896    	; 0x3a6 <__vector_9>
      26:	00 00       	nop
      28:	94 c1       	rjmp	.+808    	; 0x352 <__vector_10>
      2a:	00 00       	nop
      2c:	88 c1       	rjmp	.+784    	; 0x33e <__vector_11>
      2e:	00 00       	nop
      30:	68 c1       	rjmp	.+720    	; 0x302 <__vector_12>
      32:	00 00       	nop
      34:	70 c1       	rjmp	.+736    	; 0x316 <__vector_13>
      36:	00 00       	nop
      38:	5a c1       	rjmp	.+692    	; 0x2ee <__vector_14>
      3a:	00 00       	nop
      3c:	2e c1       	rjmp	.+604    	; 0x29a <__vector_15>
      3e:	00 00       	nop
      40:	02 c1       	rjmp	.+516    	; 0x246 <__vector_16>
      42:	00 00       	nop
      44:	52 c0       	rjmp	.+164    	; 0xea <__bad_interrupt>
      46:	00 00       	nop
      48:	56 c0       	rjmp	.+172    	; 0xf6 <__vector_18>
      4a:	00 00       	nop
      4c:	4e c0       	rjmp	.+156    	; 0xea <__bad_interrupt>
      4e:	00 00       	nop
      50:	7c c0       	rjmp	.+248    	; 0x14a <__vector_20>
      52:	00 00       	nop
      54:	4a c0       	rjmp	.+148    	; 0xea <__bad_interrupt>
      56:	00 00       	nop
      58:	48 c0       	rjmp	.+144    	; 0xea <__bad_interrupt>
      5a:	00 00       	nop
      5c:	46 c0       	rjmp	.+140    	; 0xea <__bad_interrupt>
      5e:	00 00       	nop
      60:	64 c1       	rjmp	.+712    	; 0x32a <__vector_24>
      62:	00 00       	nop
      64:	f2 c1       	rjmp	.+996    	; 0x44a <__vector_25>
      66:	00 00       	nop
      68:	d2 c1       	rjmp	.+932    	; 0x40e <__vector_26>
      6a:	00 00       	nop
      6c:	da c1       	rjmp	.+948    	; 0x422 <__vector_27>
      6e:	00 00       	nop
      70:	e2 c1       	rjmp	.+964    	; 0x436 <__vector_28>
      72:	00 00       	nop
      74:	c2 c1       	rjmp	.+900    	; 0x3fa <__vector_29>
      76:	00 00       	nop
      78:	92 c0       	rjmp	.+292    	; 0x19e <__vector_30>
      7a:	00 00       	nop
      7c:	36 c0       	rjmp	.+108    	; 0xea <__bad_interrupt>
      7e:	00 00       	nop
      80:	b8 c0       	rjmp	.+368    	; 0x1f2 <__vector_32>
      82:	00 00       	nop
      84:	32 c0       	rjmp	.+100    	; 0xea <__bad_interrupt>
      86:	00 00       	nop
      88:	30 c0       	rjmp	.+96     	; 0xea <__bad_interrupt>
      8a:	00 00       	nop
      8c:	2a 0b       	sbc	r18, r26
      8e:	32 0b       	sbc	r19, r18
      90:	3a 0b       	sbc	r19, r26
      92:	3e 0b       	sbc	r19, r30
      94:	42 0b       	sbc	r20, r18
      96:	53 0b       	sbc	r21, r19
      98:	57 0b       	sbc	r21, r23
      9a:	67 0b       	sbc	r22, r23
      9c:	7b 0b       	sbc	r23, r27
      9e:	c0 0e       	add	r12, r16
      a0:	d3 0e       	add	r13, r19
      a2:	e6 0e       	add	r14, r22
      a4:	f9 0e       	add	r15, r25
      a6:	0c 0f       	add	r16, r28
      a8:	1f 0f       	add	r17, r31
      aa:	32 0f       	add	r19, r18

000000ac <__ctors_end>:
      ac:	11 24       	eor	r1, r1
      ae:	1f be       	out	0x3f, r1	; 63
      b0:	cf ef       	ldi	r28, 0xFF	; 255
      b2:	d0 e1       	ldi	r29, 0x10	; 16
      b4:	de bf       	out	0x3e, r29	; 62
      b6:	cd bf       	out	0x3d, r28	; 61

000000b8 <__do_copy_data>:
      b8:	11 e0       	ldi	r17, 0x01	; 1
      ba:	a0 e0       	ldi	r26, 0x00	; 0
      bc:	b1 e0       	ldi	r27, 0x01	; 1
      be:	ee e5       	ldi	r30, 0x5E	; 94
      c0:	fb e2       	ldi	r31, 0x2B	; 43
      c2:	00 e0       	ldi	r16, 0x00	; 0
      c4:	0b bf       	out	0x3b, r16	; 59
      c6:	02 c0       	rjmp	.+4      	; 0xcc <__do_copy_data+0x14>
      c8:	07 90       	elpm	r0, Z+
      ca:	0d 92       	st	X+, r0
      cc:	ac 39       	cpi	r26, 0x9C	; 156
      ce:	b1 07       	cpc	r27, r17
      d0:	d9 f7       	brne	.-10     	; 0xc8 <__do_copy_data+0x10>

000000d2 <__do_clear_bss>:
      d2:	27 e0       	ldi	r18, 0x07	; 7
      d4:	ac e9       	ldi	r26, 0x9C	; 156
      d6:	b1 e0       	ldi	r27, 0x01	; 1
      d8:	01 c0       	rjmp	.+2      	; 0xdc <.do_clear_bss_start>

000000da <.do_clear_bss_loop>:
      da:	1d 92       	st	X+, r1

000000dc <.do_clear_bss_start>:
      dc:	af 3f       	cpi	r26, 0xFF	; 255
      de:	b2 07       	cpc	r27, r18
      e0:	e1 f7       	brne	.-8      	; 0xda <.do_clear_bss_loop>
      e2:	0e 94 cc 13 	call	0x2798	; 0x2798 <main>
      e6:	0c 94 ad 15 	jmp	0x2b5a	; 0x2b5a <_exit>

000000ea <__bad_interrupt>:
      ea:	8a cf       	rjmp	.-236    	; 0x0 <__vectors>

000000ec <apInit>:
#include "uart.h"

void apInit(void)
{
	//uartOpen(_DEF_UART1, 38400);
	sei();
      ec:	78 94       	sei
      ee:	08 95       	ret

000000f0 <apMain>:
		{
			uint8_t rx_data = uartRead(_DEF_UART1);
			uartWrite(_DEF_UART1, &rx_data, 1);
		}
		*/
		rosServerRun();
      f0:	0e 94 bc 0a 	call	0x1578	; 0x1578 <rosServerRun>
      f4:	fd cf       	rjmp	.-6      	; 0xf0 <apMain>

000000f6 <__vector_18>:

#ifdef _USE_HW_UART
extern UART_HandleTypeDef huart1;
extern UART_HandleTypeDef huart2;
ISR(USART0_RX_vect)
{
      f6:	1f 92       	push	r1
      f8:	0f 92       	push	r0
      fa:	0f b6       	in	r0, 0x3f	; 63
      fc:	0f 92       	push	r0
      fe:	11 24       	eor	r1, r1
     100:	0b b6       	in	r0, 0x3b	; 59
     102:	0f 92       	push	r0
     104:	2f 93       	push	r18
     106:	3f 93       	push	r19
     108:	4f 93       	push	r20
     10a:	5f 93       	push	r21
     10c:	6f 93       	push	r22
     10e:	7f 93       	push	r23
     110:	8f 93       	push	r24
     112:	9f 93       	push	r25
     114:	af 93       	push	r26
     116:	bf 93       	push	r27
     118:	ef 93       	push	r30
     11a:	ff 93       	push	r31
	UART_RxIRQHandler(&huart1);
     11c:	81 ed       	ldi	r24, 0xD1	; 209
     11e:	97 e0       	ldi	r25, 0x07	; 7
     120:	0e 94 b7 13 	call	0x276e	; 0x276e <UART_RxIRQHandler>
}
     124:	ff 91       	pop	r31
     126:	ef 91       	pop	r30
     128:	bf 91       	pop	r27
     12a:	af 91       	pop	r26
     12c:	9f 91       	pop	r25
     12e:	8f 91       	pop	r24
     130:	7f 91       	pop	r23
     132:	6f 91       	pop	r22
     134:	5f 91       	pop	r21
     136:	4f 91       	pop	r20
     138:	3f 91       	pop	r19
     13a:	2f 91       	pop	r18
     13c:	0f 90       	pop	r0
     13e:	0b be       	out	0x3b, r0	; 59
     140:	0f 90       	pop	r0
     142:	0f be       	out	0x3f, r0	; 63
     144:	0f 90       	pop	r0
     146:	1f 90       	pop	r1
     148:	18 95       	reti

0000014a <__vector_20>:

ISR(USART0_TX_vect)
{
     14a:	1f 92       	push	r1
     14c:	0f 92       	push	r0
     14e:	0f b6       	in	r0, 0x3f	; 63
     150:	0f 92       	push	r0
     152:	11 24       	eor	r1, r1
     154:	0b b6       	in	r0, 0x3b	; 59
     156:	0f 92       	push	r0
     158:	2f 93       	push	r18
     15a:	3f 93       	push	r19
     15c:	4f 93       	push	r20
     15e:	5f 93       	push	r21
     160:	6f 93       	push	r22
     162:	7f 93       	push	r23
     164:	8f 93       	push	r24
     166:	9f 93       	push	r25
     168:	af 93       	push	r26
     16a:	bf 93       	push	r27
     16c:	ef 93       	push	r30
     16e:	ff 93       	push	r31
	UART_TxIRQHandler(&huart1);
     170:	81 ed       	ldi	r24, 0xD1	; 209
     172:	97 e0       	ldi	r25, 0x07	; 7
     174:	0e 94 b5 13 	call	0x276a	; 0x276a <UART_TxIRQHandler>
}
     178:	ff 91       	pop	r31
     17a:	ef 91       	pop	r30
     17c:	bf 91       	pop	r27
     17e:	af 91       	pop	r26
     180:	9f 91       	pop	r25
     182:	8f 91       	pop	r24
     184:	7f 91       	pop	r23
     186:	6f 91       	pop	r22
     188:	5f 91       	pop	r21
     18a:	4f 91       	pop	r20
     18c:	3f 91       	pop	r19
     18e:	2f 91       	pop	r18
     190:	0f 90       	pop	r0
     192:	0b be       	out	0x3b, r0	; 59
     194:	0f 90       	pop	r0
     196:	0f be       	out	0x3f, r0	; 63
     198:	0f 90       	pop	r0
     19a:	1f 90       	pop	r1
     19c:	18 95       	reti

0000019e <__vector_30>:

ISR(USART1_RX_vect)
{
     19e:	1f 92       	push	r1
     1a0:	0f 92       	push	r0
     1a2:	0f b6       	in	r0, 0x3f	; 63
     1a4:	0f 92       	push	r0
     1a6:	11 24       	eor	r1, r1
     1a8:	0b b6       	in	r0, 0x3b	; 59
     1aa:	0f 92       	push	r0
     1ac:	2f 93       	push	r18
     1ae:	3f 93       	push	r19
     1b0:	4f 93       	push	r20
     1b2:	5f 93       	push	r21
     1b4:	6f 93       	push	r22
     1b6:	7f 93       	push	r23
     1b8:	8f 93       	push	r24
     1ba:	9f 93       	push	r25
     1bc:	af 93       	push	r26
     1be:	bf 93       	push	r27
     1c0:	ef 93       	push	r30
     1c2:	ff 93       	push	r31
	UART_RxIRQHandler(&huart2);
     1c4:	88 ee       	ldi	r24, 0xE8	; 232
     1c6:	97 e0       	ldi	r25, 0x07	; 7
     1c8:	0e 94 b7 13 	call	0x276e	; 0x276e <UART_RxIRQHandler>
}
     1cc:	ff 91       	pop	r31
     1ce:	ef 91       	pop	r30
     1d0:	bf 91       	pop	r27
     1d2:	af 91       	pop	r26
     1d4:	9f 91       	pop	r25
     1d6:	8f 91       	pop	r24
     1d8:	7f 91       	pop	r23
     1da:	6f 91       	pop	r22
     1dc:	5f 91       	pop	r21
     1de:	4f 91       	pop	r20
     1e0:	3f 91       	pop	r19
     1e2:	2f 91       	pop	r18
     1e4:	0f 90       	pop	r0
     1e6:	0b be       	out	0x3b, r0	; 59
     1e8:	0f 90       	pop	r0
     1ea:	0f be       	out	0x3f, r0	; 63
     1ec:	0f 90       	pop	r0
     1ee:	1f 90       	pop	r1
     1f0:	18 95       	reti

000001f2 <__vector_32>:

ISR(USART1_TX_vect)
{
     1f2:	1f 92       	push	r1
     1f4:	0f 92       	push	r0
     1f6:	0f b6       	in	r0, 0x3f	; 63
     1f8:	0f 92       	push	r0
     1fa:	11 24       	eor	r1, r1
     1fc:	0b b6       	in	r0, 0x3b	; 59
     1fe:	0f 92       	push	r0
     200:	2f 93       	push	r18
     202:	3f 93       	push	r19
     204:	4f 93       	push	r20
     206:	5f 93       	push	r21
     208:	6f 93       	push	r22
     20a:	7f 93       	push	r23
     20c:	8f 93       	push	r24
     20e:	9f 93       	push	r25
     210:	af 93       	push	r26
     212:	bf 93       	push	r27
     214:	ef 93       	push	r30
     216:	ff 93       	push	r31
	UART_TxIRQHandler(&huart2);
     218:	88 ee       	ldi	r24, 0xE8	; 232
     21a:	97 e0       	ldi	r25, 0x07	; 7
     21c:	0e 94 b5 13 	call	0x276a	; 0x276a <UART_TxIRQHandler>
}
     220:	ff 91       	pop	r31
     222:	ef 91       	pop	r30
     224:	bf 91       	pop	r27
     226:	af 91       	pop	r26
     228:	9f 91       	pop	r25
     22a:	8f 91       	pop	r24
     22c:	7f 91       	pop	r23
     22e:	6f 91       	pop	r22
     230:	5f 91       	pop	r21
     232:	4f 91       	pop	r20
     234:	3f 91       	pop	r19
     236:	2f 91       	pop	r18
     238:	0f 90       	pop	r0
     23a:	0b be       	out	0x3b, r0	; 59
     23c:	0f 90       	pop	r0
     23e:	0f be       	out	0x3f, r0	; 63
     240:	0f 90       	pop	r0
     242:	1f 90       	pop	r1
     244:	18 95       	reti

00000246 <__vector_16>:
extern TIM16_HandleTypeDef htim3;
extern TIM16_HandleTypeDef htim4;


ISR(TIMER0_OVF_vect)
{
     246:	1f 92       	push	r1
     248:	0f 92       	push	r0
     24a:	0f b6       	in	r0, 0x3f	; 63
     24c:	0f 92       	push	r0
     24e:	11 24       	eor	r1, r1
     250:	0b b6       	in	r0, 0x3b	; 59
     252:	0f 92       	push	r0
     254:	2f 93       	push	r18
     256:	3f 93       	push	r19
     258:	4f 93       	push	r20
     25a:	5f 93       	push	r21
     25c:	6f 93       	push	r22
     25e:	7f 93       	push	r23
     260:	8f 93       	push	r24
     262:	9f 93       	push	r25
     264:	af 93       	push	r26
     266:	bf 93       	push	r27
     268:	ef 93       	push	r30
     26a:	ff 93       	push	r31
	TIM0_OVF_IRQHandler(&htim1);
     26c:	8f ee       	ldi	r24, 0xEF	; 239
     26e:	93 e0       	ldi	r25, 0x03	; 3
     270:	0e 94 bf 10 	call	0x217e	; 0x217e <TIM0_OVF_IRQHandler>
}
     274:	ff 91       	pop	r31
     276:	ef 91       	pop	r30
     278:	bf 91       	pop	r27
     27a:	af 91       	pop	r26
     27c:	9f 91       	pop	r25
     27e:	8f 91       	pop	r24
     280:	7f 91       	pop	r23
     282:	6f 91       	pop	r22
     284:	5f 91       	pop	r21
     286:	4f 91       	pop	r20
     288:	3f 91       	pop	r19
     28a:	2f 91       	pop	r18
     28c:	0f 90       	pop	r0
     28e:	0b be       	out	0x3b, r0	; 59
     290:	0f 90       	pop	r0
     292:	0f be       	out	0x3f, r0	; 63
     294:	0f 90       	pop	r0
     296:	1f 90       	pop	r1
     298:	18 95       	reti

0000029a <__vector_15>:

ISR(TIMER0_COMP_vect)
{
     29a:	1f 92       	push	r1
     29c:	0f 92       	push	r0
     29e:	0f b6       	in	r0, 0x3f	; 63
     2a0:	0f 92       	push	r0
     2a2:	11 24       	eor	r1, r1
     2a4:	0b b6       	in	r0, 0x3b	; 59
     2a6:	0f 92       	push	r0
     2a8:	2f 93       	push	r18
     2aa:	3f 93       	push	r19
     2ac:	4f 93       	push	r20
     2ae:	5f 93       	push	r21
     2b0:	6f 93       	push	r22
     2b2:	7f 93       	push	r23
     2b4:	8f 93       	push	r24
     2b6:	9f 93       	push	r25
     2b8:	af 93       	push	r26
     2ba:	bf 93       	push	r27
     2bc:	ef 93       	push	r30
     2be:	ff 93       	push	r31
	TIM0_OC_IRQHandler(&htim1);
     2c0:	8f ee       	ldi	r24, 0xEF	; 239
     2c2:	93 e0       	ldi	r25, 0x03	; 3
     2c4:	0e 94 c5 10 	call	0x218a	; 0x218a <TIM0_OC_IRQHandler>
}
     2c8:	ff 91       	pop	r31
     2ca:	ef 91       	pop	r30
     2cc:	bf 91       	pop	r27
     2ce:	af 91       	pop	r26
     2d0:	9f 91       	pop	r25
     2d2:	8f 91       	pop	r24
     2d4:	7f 91       	pop	r23
     2d6:	6f 91       	pop	r22
     2d8:	5f 91       	pop	r21
     2da:	4f 91       	pop	r20
     2dc:	3f 91       	pop	r19
     2de:	2f 91       	pop	r18
     2e0:	0f 90       	pop	r0
     2e2:	0b be       	out	0x3b, r0	; 59
     2e4:	0f 90       	pop	r0
     2e6:	0f be       	out	0x3f, r0	; 63
     2e8:	0f 90       	pop	r0
     2ea:	1f 90       	pop	r1
     2ec:	18 95       	reti

000002ee <__vector_14>:

ISR(TIMER1_OVF_vect)
{
     2ee:	1f 92       	push	r1
     2f0:	0f 92       	push	r0
     2f2:	0f b6       	in	r0, 0x3f	; 63
     2f4:	0f 92       	push	r0
     2f6:	11 24       	eor	r1, r1
	
}
     2f8:	0f 90       	pop	r0
     2fa:	0f be       	out	0x3f, r0	; 63
     2fc:	0f 90       	pop	r0
     2fe:	1f 90       	pop	r1
     300:	18 95       	reti

00000302 <__vector_12>:

ISR(TIMER1_COMPA_vect)
{
     302:	1f 92       	push	r1
     304:	0f 92       	push	r0
     306:	0f b6       	in	r0, 0x3f	; 63
     308:	0f 92       	push	r0
     30a:	11 24       	eor	r1, r1
	
}
     30c:	0f 90       	pop	r0
     30e:	0f be       	out	0x3f, r0	; 63
     310:	0f 90       	pop	r0
     312:	1f 90       	pop	r1
     314:	18 95       	reti

00000316 <__vector_13>:

ISR(TIMER1_COMPB_vect)
{
     316:	1f 92       	push	r1
     318:	0f 92       	push	r0
     31a:	0f b6       	in	r0, 0x3f	; 63
     31c:	0f 92       	push	r0
     31e:	11 24       	eor	r1, r1
	
}
     320:	0f 90       	pop	r0
     322:	0f be       	out	0x3f, r0	; 63
     324:	0f 90       	pop	r0
     326:	1f 90       	pop	r1
     328:	18 95       	reti

0000032a <__vector_24>:

ISR(TIMER1_COMPC_vect)
{
     32a:	1f 92       	push	r1
     32c:	0f 92       	push	r0
     32e:	0f b6       	in	r0, 0x3f	; 63
     330:	0f 92       	push	r0
     332:	11 24       	eor	r1, r1
	
}
     334:	0f 90       	pop	r0
     336:	0f be       	out	0x3f, r0	; 63
     338:	0f 90       	pop	r0
     33a:	1f 90       	pop	r1
     33c:	18 95       	reti

0000033e <__vector_11>:

ISR(TIMER1_CAPT_vect)
{
     33e:	1f 92       	push	r1
     340:	0f 92       	push	r0
     342:	0f b6       	in	r0, 0x3f	; 63
     344:	0f 92       	push	r0
     346:	11 24       	eor	r1, r1
	
}
     348:	0f 90       	pop	r0
     34a:	0f be       	out	0x3f, r0	; 63
     34c:	0f 90       	pop	r0
     34e:	1f 90       	pop	r1
     350:	18 95       	reti

00000352 <__vector_10>:

ISR(TIMER2_OVF_vect)
{
     352:	1f 92       	push	r1
     354:	0f 92       	push	r0
     356:	0f b6       	in	r0, 0x3f	; 63
     358:	0f 92       	push	r0
     35a:	11 24       	eor	r1, r1
     35c:	0b b6       	in	r0, 0x3b	; 59
     35e:	0f 92       	push	r0
     360:	2f 93       	push	r18
     362:	3f 93       	push	r19
     364:	4f 93       	push	r20
     366:	5f 93       	push	r21
     368:	6f 93       	push	r22
     36a:	7f 93       	push	r23
     36c:	8f 93       	push	r24
     36e:	9f 93       	push	r25
     370:	af 93       	push	r26
     372:	bf 93       	push	r27
     374:	ef 93       	push	r30
     376:	ff 93       	push	r31
	TIM2_OVF_IRQHandler(&htim2);
     378:	83 e5       	ldi	r24, 0x53	; 83
     37a:	94 e0       	ldi	r25, 0x04	; 4
     37c:	0e 94 c2 10 	call	0x2184	; 0x2184 <TIM2_OVF_IRQHandler>
}
     380:	ff 91       	pop	r31
     382:	ef 91       	pop	r30
     384:	bf 91       	pop	r27
     386:	af 91       	pop	r26
     388:	9f 91       	pop	r25
     38a:	8f 91       	pop	r24
     38c:	7f 91       	pop	r23
     38e:	6f 91       	pop	r22
     390:	5f 91       	pop	r21
     392:	4f 91       	pop	r20
     394:	3f 91       	pop	r19
     396:	2f 91       	pop	r18
     398:	0f 90       	pop	r0
     39a:	0b be       	out	0x3b, r0	; 59
     39c:	0f 90       	pop	r0
     39e:	0f be       	out	0x3f, r0	; 63
     3a0:	0f 90       	pop	r0
     3a2:	1f 90       	pop	r1
     3a4:	18 95       	reti

000003a6 <__vector_9>:

ISR(TIMER2_COMP_vect)
{
     3a6:	1f 92       	push	r1
     3a8:	0f 92       	push	r0
     3aa:	0f b6       	in	r0, 0x3f	; 63
     3ac:	0f 92       	push	r0
     3ae:	11 24       	eor	r1, r1
     3b0:	0b b6       	in	r0, 0x3b	; 59
     3b2:	0f 92       	push	r0
     3b4:	2f 93       	push	r18
     3b6:	3f 93       	push	r19
     3b8:	4f 93       	push	r20
     3ba:	5f 93       	push	r21
     3bc:	6f 93       	push	r22
     3be:	7f 93       	push	r23
     3c0:	8f 93       	push	r24
     3c2:	9f 93       	push	r25
     3c4:	af 93       	push	r26
     3c6:	bf 93       	push	r27
     3c8:	ef 93       	push	r30
     3ca:	ff 93       	push	r31
	TIM2_OC_IRQHandler(&htim2);
     3cc:	83 e5       	ldi	r24, 0x53	; 83
     3ce:	94 e0       	ldi	r25, 0x04	; 4
     3d0:	0e 94 c8 10 	call	0x2190	; 0x2190 <TIM2_OC_IRQHandler>
}
     3d4:	ff 91       	pop	r31
     3d6:	ef 91       	pop	r30
     3d8:	bf 91       	pop	r27
     3da:	af 91       	pop	r26
     3dc:	9f 91       	pop	r25
     3de:	8f 91       	pop	r24
     3e0:	7f 91       	pop	r23
     3e2:	6f 91       	pop	r22
     3e4:	5f 91       	pop	r21
     3e6:	4f 91       	pop	r20
     3e8:	3f 91       	pop	r19
     3ea:	2f 91       	pop	r18
     3ec:	0f 90       	pop	r0
     3ee:	0b be       	out	0x3b, r0	; 59
     3f0:	0f 90       	pop	r0
     3f2:	0f be       	out	0x3f, r0	; 63
     3f4:	0f 90       	pop	r0
     3f6:	1f 90       	pop	r1
     3f8:	18 95       	reti

000003fa <__vector_29>:

ISR(TIMER3_OVF_vect)
{
     3fa:	1f 92       	push	r1
     3fc:	0f 92       	push	r0
     3fe:	0f b6       	in	r0, 0x3f	; 63
     400:	0f 92       	push	r0
     402:	11 24       	eor	r1, r1
	
}
     404:	0f 90       	pop	r0
     406:	0f be       	out	0x3f, r0	; 63
     408:	0f 90       	pop	r0
     40a:	1f 90       	pop	r1
     40c:	18 95       	reti

0000040e <__vector_26>:

ISR(TIMER3_COMPA_vect)
{
     40e:	1f 92       	push	r1
     410:	0f 92       	push	r0
     412:	0f b6       	in	r0, 0x3f	; 63
     414:	0f 92       	push	r0
     416:	11 24       	eor	r1, r1
	
}
     418:	0f 90       	pop	r0
     41a:	0f be       	out	0x3f, r0	; 63
     41c:	0f 90       	pop	r0
     41e:	1f 90       	pop	r1
     420:	18 95       	reti

00000422 <__vector_27>:

ISR(TIMER3_COMPB_vect)
{
     422:	1f 92       	push	r1
     424:	0f 92       	push	r0
     426:	0f b6       	in	r0, 0x3f	; 63
     428:	0f 92       	push	r0
     42a:	11 24       	eor	r1, r1
	
}
     42c:	0f 90       	pop	r0
     42e:	0f be       	out	0x3f, r0	; 63
     430:	0f 90       	pop	r0
     432:	1f 90       	pop	r1
     434:	18 95       	reti

00000436 <__vector_28>:

ISR(TIMER3_COMPC_vect)
{
     436:	1f 92       	push	r1
     438:	0f 92       	push	r0
     43a:	0f b6       	in	r0, 0x3f	; 63
     43c:	0f 92       	push	r0
     43e:	11 24       	eor	r1, r1
	
}
     440:	0f 90       	pop	r0
     442:	0f be       	out	0x3f, r0	; 63
     444:	0f 90       	pop	r0
     446:	1f 90       	pop	r1
     448:	18 95       	reti

0000044a <__vector_25>:

ISR(TIMER3_CAPT_vect)
{
     44a:	1f 92       	push	r1
     44c:	0f 92       	push	r0
     44e:	0f b6       	in	r0, 0x3f	; 63
     450:	0f 92       	push	r0
     452:	11 24       	eor	r1, r1
	
}
     454:	0f 90       	pop	r0
     456:	0f be       	out	0x3f, r0	; 63
     458:	0f 90       	pop	r0
     45a:	1f 90       	pop	r1
     45c:	18 95       	reti

0000045e <bspInit>:
﻿#include "bsp.h"


void bspInit(void)
{
     45e:	08 95       	ret

00000460 <qbufferCreate>:
{

}

bool qbufferCreate(qbuffer_t *p_node, uint8_t *p_buf, uint32_t length)
{
     460:	fc 01       	movw	r30, r24
	bool ret = true;

	p_node->in    = 0;
     462:	10 82       	st	Z, r1
     464:	11 82       	std	Z+1, r1	; 0x01
     466:	12 82       	std	Z+2, r1	; 0x02
     468:	13 82       	std	Z+3, r1	; 0x03
	p_node->out   = 0;
     46a:	14 82       	std	Z+4, r1	; 0x04
     46c:	15 82       	std	Z+5, r1	; 0x05
     46e:	16 82       	std	Z+6, r1	; 0x06
     470:	17 82       	std	Z+7, r1	; 0x07
	p_node->len   = length;
     472:	20 87       	std	Z+8, r18	; 0x08
     474:	31 87       	std	Z+9, r19	; 0x09
     476:	42 87       	std	Z+10, r20	; 0x0a
     478:	53 87       	std	Z+11, r21	; 0x0b
	p_node->p_buf = p_buf;
     47a:	75 87       	std	Z+13, r23	; 0x0d
     47c:	64 87       	std	Z+12, r22	; 0x0c

	return ret;
}
     47e:	81 e0       	ldi	r24, 0x01	; 1
     480:	08 95       	ret

00000482 <qbufferWrite>:

bool qbufferWrite(qbuffer_t *p_node, uint8_t *p_data, uint32_t length)
{
     482:	4f 92       	push	r4
     484:	5f 92       	push	r5
     486:	6f 92       	push	r6
     488:	7f 92       	push	r7
     48a:	af 92       	push	r10
     48c:	bf 92       	push	r11
     48e:	cf 92       	push	r12
     490:	df 92       	push	r13
     492:	ef 92       	push	r14
     494:	ff 92       	push	r15
     496:	0f 93       	push	r16
     498:	1f 93       	push	r17
     49a:	cf 93       	push	r28
     49c:	df 93       	push	r29
     49e:	00 d0       	rcall	.+0      	; 0x4a0 <qbufferWrite+0x1e>
     4a0:	00 d0       	rcall	.+0      	; 0x4a2 <qbufferWrite+0x20>
     4a2:	00 d0       	rcall	.+0      	; 0x4a4 <qbufferWrite+0x22>
     4a4:	cd b7       	in	r28, 0x3d	; 61
     4a6:	de b7       	in	r29, 0x3e	; 62
     4a8:	9e 83       	std	Y+6, r25	; 0x06
     4aa:	8d 83       	std	Y+5, r24	; 0x05
     4ac:	06 2f       	mov	r16, r22
     4ae:	17 2f       	mov	r17, r23
     4b0:	29 01       	movw	r4, r18
     4b2:	3a 01       	movw	r6, r20
	bool ret = 0;
	uint32_t next_in;

	for (int i=0; i<length; i++)
     4b4:	23 2b       	or	r18, r19
     4b6:	24 2b       	or	r18, r20
     4b8:	25 2b       	or	r18, r21
     4ba:	09 f4       	brne	.+2      	; 0x4be <qbufferWrite+0x3c>
     4bc:	72 c0       	rjmp	.+228    	; 0x5a2 <qbufferWrite+0x120>
	{
		next_in = (p_node->in + 1) %p_node->len;
     4be:	dc 01       	movw	r26, r24
     4c0:	8d 91       	ld	r24, X+
     4c2:	9d 91       	ld	r25, X+
     4c4:	0d 90       	ld	r0, X+
     4c6:	bc 91       	ld	r27, X
     4c8:	a0 2d       	mov	r26, r0
     4ca:	89 83       	std	Y+1, r24	; 0x01
     4cc:	9a 83       	std	Y+2, r25	; 0x02
     4ce:	ab 83       	std	Y+3, r26	; 0x03
     4d0:	bc 83       	std	Y+4, r27	; 0x04
     4d2:	bc 01       	movw	r22, r24
     4d4:	cd 01       	movw	r24, r26
     4d6:	6f 5f       	subi	r22, 0xFF	; 255
     4d8:	7f 4f       	sbci	r23, 0xFF	; 255
     4da:	8f 4f       	sbci	r24, 0xFF	; 255
     4dc:	9f 4f       	sbci	r25, 0xFF	; 255
     4de:	ed 81       	ldd	r30, Y+5	; 0x05
     4e0:	fe 81       	ldd	r31, Y+6	; 0x06
     4e2:	20 85       	ldd	r18, Z+8	; 0x08
     4e4:	31 85       	ldd	r19, Z+9	; 0x09
     4e6:	42 85       	ldd	r20, Z+10	; 0x0a
     4e8:	53 85       	ldd	r21, Z+11	; 0x0b
     4ea:	0e 94 6e 15 	call	0x2adc	; 0x2adc <__udivmodsi4>
     4ee:	6b 01       	movw	r12, r22
     4f0:	7c 01       	movw	r14, r24

		if (next_in != p_node->out)
     4f2:	ed 81       	ldd	r30, Y+5	; 0x05
     4f4:	fe 81       	ldd	r31, Y+6	; 0x06
     4f6:	84 81       	ldd	r24, Z+4	; 0x04
     4f8:	95 81       	ldd	r25, Z+5	; 0x05
     4fa:	a6 81       	ldd	r26, Z+6	; 0x06
     4fc:	b7 81       	ldd	r27, Z+7	; 0x07
     4fe:	c8 16       	cp	r12, r24
     500:	d9 06       	cpc	r13, r25
     502:	ea 06       	cpc	r14, r26
     504:	fb 06       	cpc	r15, r27
     506:	09 f4       	brne	.+2      	; 0x50a <qbufferWrite+0x88>
     508:	4c c0       	rjmp	.+152    	; 0x5a2 <qbufferWrite+0x120>
     50a:	a0 2e       	mov	r10, r16
     50c:	b1 2e       	mov	r11, r17
     50e:	00 e0       	ldi	r16, 0x00	; 0
     510:	10 e0       	ldi	r17, 0x00	; 0
     512:	24 c0       	rjmp	.+72     	; 0x55c <qbufferWrite+0xda>
	bool ret = 0;
	uint32_t next_in;

	for (int i=0; i<length; i++)
	{
		next_in = (p_node->in + 1) %p_node->len;
     514:	c7 01       	movw	r24, r14
     516:	b6 01       	movw	r22, r12
     518:	6f 5f       	subi	r22, 0xFF	; 255
     51a:	7f 4f       	sbci	r23, 0xFF	; 255
     51c:	8f 4f       	sbci	r24, 0xFF	; 255
     51e:	9f 4f       	sbci	r25, 0xFF	; 255
     520:	ad 81       	ldd	r26, Y+5	; 0x05
     522:	be 81       	ldd	r27, Y+6	; 0x06
     524:	18 96       	adiw	r26, 0x08	; 8
     526:	2d 91       	ld	r18, X+
     528:	3d 91       	ld	r19, X+
     52a:	4d 91       	ld	r20, X+
     52c:	5c 91       	ld	r21, X
     52e:	1b 97       	sbiw	r26, 0x0b	; 11
     530:	0e 94 6e 15 	call	0x2adc	; 0x2adc <__udivmodsi4>
     534:	bf ef       	ldi	r27, 0xFF	; 255
     536:	ab 1a       	sub	r10, r27
     538:	bb 0a       	sbc	r11, r27
     53a:	c9 82       	std	Y+1, r12	; 0x01
     53c:	da 82       	std	Y+2, r13	; 0x02
     53e:	eb 82       	std	Y+3, r14	; 0x03
     540:	fc 82       	std	Y+4, r15	; 0x04

		if (next_in != p_node->out)
     542:	ed 81       	ldd	r30, Y+5	; 0x05
     544:	fe 81       	ldd	r31, Y+6	; 0x06
     546:	c4 80       	ldd	r12, Z+4	; 0x04
     548:	d5 80       	ldd	r13, Z+5	; 0x05
     54a:	e6 80       	ldd	r14, Z+6	; 0x06
     54c:	f7 80       	ldd	r15, Z+7	; 0x07
     54e:	6c 15       	cp	r22, r12
     550:	7d 05       	cpc	r23, r13
     552:	8e 05       	cpc	r24, r14
     554:	9f 05       	cpc	r25, r15
     556:	29 f1       	breq	.+74     	; 0x5a2 <qbufferWrite+0x120>
	bool ret = 0;
	uint32_t next_in;

	for (int i=0; i<length; i++)
	{
		next_in = (p_node->in + 1) %p_node->len;
     558:	6b 01       	movw	r12, r22
     55a:	7c 01       	movw	r14, r24

		if (next_in != p_node->out)
		{
			if (p_node->p_buf != NULL)
     55c:	ad 81       	ldd	r26, Y+5	; 0x05
     55e:	be 81       	ldd	r27, Y+6	; 0x06
     560:	1c 96       	adiw	r26, 0x0c	; 12
     562:	8d 91       	ld	r24, X+
     564:	9c 91       	ld	r25, X
     566:	1d 97       	sbiw	r26, 0x0d	; 13
     568:	00 97       	sbiw	r24, 0x00	; 0
     56a:	39 f0       	breq	.+14     	; 0x57a <qbufferWrite+0xf8>
			{
				p_node->p_buf[p_node->in] = p_data[i];
     56c:	f5 01       	movw	r30, r10
     56e:	20 81       	ld	r18, Z
     570:	e9 81       	ldd	r30, Y+1	; 0x01
     572:	fa 81       	ldd	r31, Y+2	; 0x02
     574:	e8 0f       	add	r30, r24
     576:	f9 1f       	adc	r31, r25
     578:	20 83       	st	Z, r18
			}
			p_node->in = next_in;
     57a:	ad 81       	ldd	r26, Y+5	; 0x05
     57c:	be 81       	ldd	r27, Y+6	; 0x06
     57e:	cd 92       	st	X+, r12
     580:	dd 92       	st	X+, r13
     582:	ed 92       	st	X+, r14
     584:	fc 92       	st	X, r15
     586:	13 97       	sbiw	r26, 0x03	; 3
bool qbufferWrite(qbuffer_t *p_node, uint8_t *p_data, uint32_t length)
{
	bool ret = 0;
	uint32_t next_in;

	for (int i=0; i<length; i++)
     588:	0f 5f       	subi	r16, 0xFF	; 255
     58a:	1f 4f       	sbci	r17, 0xFF	; 255
     58c:	c8 01       	movw	r24, r16
     58e:	01 2e       	mov	r0, r17
     590:	00 0c       	add	r0, r0
     592:	aa 0b       	sbc	r26, r26
     594:	bb 0b       	sbc	r27, r27
     596:	84 15       	cp	r24, r4
     598:	95 05       	cpc	r25, r5
     59a:	a6 05       	cpc	r26, r6
     59c:	b7 05       	cpc	r27, r7
     59e:	08 f4       	brcc	.+2      	; 0x5a2 <qbufferWrite+0x120>
     5a0:	b9 cf       	rjmp	.-142    	; 0x514 <qbufferWrite+0x92>
			ret = false;
			break;
		}
	}
	return ret;
}
     5a2:	80 e0       	ldi	r24, 0x00	; 0
     5a4:	26 96       	adiw	r28, 0x06	; 6
     5a6:	0f b6       	in	r0, 0x3f	; 63
     5a8:	f8 94       	cli
     5aa:	de bf       	out	0x3e, r29	; 62
     5ac:	0f be       	out	0x3f, r0	; 63
     5ae:	cd bf       	out	0x3d, r28	; 61
     5b0:	df 91       	pop	r29
     5b2:	cf 91       	pop	r28
     5b4:	1f 91       	pop	r17
     5b6:	0f 91       	pop	r16
     5b8:	ff 90       	pop	r15
     5ba:	ef 90       	pop	r14
     5bc:	df 90       	pop	r13
     5be:	cf 90       	pop	r12
     5c0:	bf 90       	pop	r11
     5c2:	af 90       	pop	r10
     5c4:	7f 90       	pop	r7
     5c6:	6f 90       	pop	r6
     5c8:	5f 90       	pop	r5
     5ca:	4f 90       	pop	r4
     5cc:	08 95       	ret

000005ce <qbufferRead>:


bool qbufferRead(qbuffer_t *p_node, uint8_t *p_data, uint32_t length)
{
     5ce:	4f 92       	push	r4
     5d0:	5f 92       	push	r5
     5d2:	6f 92       	push	r6
     5d4:	7f 92       	push	r7
     5d6:	8f 92       	push	r8
     5d8:	9f 92       	push	r9
     5da:	af 92       	push	r10
     5dc:	bf 92       	push	r11
     5de:	ef 92       	push	r14
     5e0:	ff 92       	push	r15
     5e2:	0f 93       	push	r16
     5e4:	1f 93       	push	r17
     5e6:	cf 93       	push	r28
     5e8:	df 93       	push	r29
     5ea:	ec 01       	movw	r28, r24
     5ec:	49 01       	movw	r8, r18
     5ee:	5a 01       	movw	r10, r20
	bool ret = true;

	for (int i=0; i<length; i++)
     5f0:	23 2b       	or	r18, r19
     5f2:	24 2b       	or	r18, r20
     5f4:	25 2b       	or	r18, r21
     5f6:	e9 f1       	breq	.+122    	; 0x672 <qbufferRead+0xa4>
     5f8:	06 2f       	mov	r16, r22
     5fa:	17 2f       	mov	r17, r23
     5fc:	e1 2c       	mov	r14, r1
     5fe:	f1 2c       	mov	r15, r1
	{
		if (p_node->p_buf != NULL)
     600:	ec 85       	ldd	r30, Y+12	; 0x0c
     602:	fd 85       	ldd	r31, Y+13	; 0x0d
     604:	30 97       	sbiw	r30, 0x00	; 0
     606:	39 f0       	breq	.+14     	; 0x616 <qbufferRead+0x48>
		{
			p_data[i] = p_node->p_buf[p_node->out];
     608:	8c 81       	ldd	r24, Y+4	; 0x04
     60a:	9d 81       	ldd	r25, Y+5	; 0x05
     60c:	e8 0f       	add	r30, r24
     60e:	f9 1f       	adc	r31, r25
     610:	80 81       	ld	r24, Z
     612:	f8 01       	movw	r30, r16
     614:	80 83       	st	Z, r24
		}

		if (p_node->out != p_node->in)
     616:	8c 81       	ldd	r24, Y+4	; 0x04
     618:	9d 81       	ldd	r25, Y+5	; 0x05
     61a:	ae 81       	ldd	r26, Y+6	; 0x06
     61c:	bf 81       	ldd	r27, Y+7	; 0x07
     61e:	48 80       	ld	r4, Y
     620:	59 80       	ldd	r5, Y+1	; 0x01
     622:	6a 80       	ldd	r6, Y+2	; 0x02
     624:	7b 80       	ldd	r7, Y+3	; 0x03
     626:	84 15       	cp	r24, r4
     628:	95 05       	cpc	r25, r5
     62a:	a6 05       	cpc	r26, r6
     62c:	b7 05       	cpc	r27, r7
     62e:	19 f1       	breq	.+70     	; 0x676 <qbufferRead+0xa8>
		{
			p_node->out = (p_node->out + 1) % p_node->len;
     630:	bc 01       	movw	r22, r24
     632:	cd 01       	movw	r24, r26
     634:	6f 5f       	subi	r22, 0xFF	; 255
     636:	7f 4f       	sbci	r23, 0xFF	; 255
     638:	8f 4f       	sbci	r24, 0xFF	; 255
     63a:	9f 4f       	sbci	r25, 0xFF	; 255
     63c:	28 85       	ldd	r18, Y+8	; 0x08
     63e:	39 85       	ldd	r19, Y+9	; 0x09
     640:	4a 85       	ldd	r20, Y+10	; 0x0a
     642:	5b 85       	ldd	r21, Y+11	; 0x0b
     644:	0e 94 6e 15 	call	0x2adc	; 0x2adc <__udivmodsi4>
     648:	6c 83       	std	Y+4, r22	; 0x04
     64a:	7d 83       	std	Y+5, r23	; 0x05
     64c:	8e 83       	std	Y+6, r24	; 0x06
     64e:	9f 83       	std	Y+7, r25	; 0x07

bool qbufferRead(qbuffer_t *p_node, uint8_t *p_data, uint32_t length)
{
	bool ret = true;

	for (int i=0; i<length; i++)
     650:	ff ef       	ldi	r31, 0xFF	; 255
     652:	ef 1a       	sub	r14, r31
     654:	ff 0a       	sbc	r15, r31
     656:	0f 5f       	subi	r16, 0xFF	; 255
     658:	1f 4f       	sbci	r17, 0xFF	; 255
     65a:	c7 01       	movw	r24, r14
     65c:	0f 2c       	mov	r0, r15
     65e:	00 0c       	add	r0, r0
     660:	aa 0b       	sbc	r26, r26
     662:	bb 0b       	sbc	r27, r27
     664:	88 15       	cp	r24, r8
     666:	99 05       	cpc	r25, r9
     668:	aa 05       	cpc	r26, r10
     66a:	bb 05       	cpc	r27, r11
     66c:	48 f2       	brcs	.-110    	; 0x600 <qbufferRead+0x32>
}


bool qbufferRead(qbuffer_t *p_node, uint8_t *p_data, uint32_t length)
{
	bool ret = true;
     66e:	81 e0       	ldi	r24, 0x01	; 1
     670:	03 c0       	rjmp	.+6      	; 0x678 <qbufferRead+0xaa>
     672:	81 e0       	ldi	r24, 0x01	; 1
     674:	01 c0       	rjmp	.+2      	; 0x678 <qbufferRead+0xaa>
		{
			p_node->out = (p_node->out + 1) % p_node->len;
		}
		else
		{
			ret = false;
     676:	80 e0       	ldi	r24, 0x00	; 0
			break;
		}
	}
	return ret;
}
     678:	df 91       	pop	r29
     67a:	cf 91       	pop	r28
     67c:	1f 91       	pop	r17
     67e:	0f 91       	pop	r16
     680:	ff 90       	pop	r15
     682:	ef 90       	pop	r14
     684:	bf 90       	pop	r11
     686:	af 90       	pop	r10
     688:	9f 90       	pop	r9
     68a:	8f 90       	pop	r8
     68c:	7f 90       	pop	r7
     68e:	6f 90       	pop	r6
     690:	5f 90       	pop	r5
     692:	4f 90       	pop	r4
     694:	08 95       	ret

00000696 <qbufferAvailable>:

uint32_t qbufferAvailable(qbuffer_t *p_node)
{
     696:	0f 93       	push	r16
     698:	1f 93       	push	r17
     69a:	fc 01       	movw	r30, r24
	uint32_t ret;

	ret = (p_node->in - p_node->out) %p_node->len;

	return ret;
     69c:	80 81       	ld	r24, Z
     69e:	91 81       	ldd	r25, Z+1	; 0x01
     6a0:	a2 81       	ldd	r26, Z+2	; 0x02
     6a2:	b3 81       	ldd	r27, Z+3	; 0x03
     6a4:	04 81       	ldd	r16, Z+4	; 0x04
     6a6:	15 81       	ldd	r17, Z+5	; 0x05
     6a8:	26 81       	ldd	r18, Z+6	; 0x06
     6aa:	37 81       	ldd	r19, Z+7	; 0x07
     6ac:	bc 01       	movw	r22, r24
     6ae:	cd 01       	movw	r24, r26
     6b0:	60 1b       	sub	r22, r16
     6b2:	71 0b       	sbc	r23, r17
     6b4:	82 0b       	sbc	r24, r18
     6b6:	93 0b       	sbc	r25, r19
     6b8:	20 85       	ldd	r18, Z+8	; 0x08
     6ba:	31 85       	ldd	r19, Z+9	; 0x09
     6bc:	42 85       	ldd	r20, Z+10	; 0x0a
     6be:	53 85       	ldd	r21, Z+11	; 0x0b
     6c0:	0e 94 6e 15 	call	0x2adc	; 0x2adc <__udivmodsi4>
}
     6c4:	1f 91       	pop	r17
     6c6:	0f 91       	pop	r16
     6c8:	08 95       	ret

000006ca <qbufferFlush>:


void qbufferFlush(qbuffer_t *p_node)
{
	p_node->in  = 0;
     6ca:	fc 01       	movw	r30, r24
     6cc:	10 82       	st	Z, r1
     6ce:	11 82       	std	Z+1, r1	; 0x01
     6d0:	12 82       	std	Z+2, r1	; 0x02
     6d2:	13 82       	std	Z+3, r1	; 0x03
	p_node->out = 0;
     6d4:	14 82       	std	Z+4, r1	; 0x04
     6d6:	15 82       	std	Z+5, r1	; 0x05
     6d8:	16 82       	std	Z+6, r1	; 0x06
     6da:	17 82       	std	Z+7, r1	; 0x07
     6dc:	08 95       	ret

000006de <ctcInit>:
		break;
		default:
		break;
	}
	return ret;
}
     6de:	e6 ef       	ldi	r30, 0xF6	; 246
     6e0:	f3 e0       	ldi	r31, 0x03	; 3
     6e2:	8a e4       	ldi	r24, 0x4A	; 74
     6e4:	94 e0       	ldi	r25, 0x04	; 4
     6e6:	10 82       	st	Z, r1
     6e8:	12 82       	std	Z+2, r1	; 0x02
     6ea:	11 82       	std	Z+1, r1	; 0x01
     6ec:	14 82       	std	Z+4, r1	; 0x04
     6ee:	13 82       	std	Z+3, r1	; 0x03
     6f0:	16 82       	std	Z+6, r1	; 0x06
     6f2:	15 82       	std	Z+5, r1	; 0x05
     6f4:	10 86       	std	Z+8, r1	; 0x08
     6f6:	17 82       	std	Z+7, r1	; 0x07
     6f8:	12 86       	std	Z+10, r1	; 0x0a
     6fa:	11 86       	std	Z+9, r1	; 0x09
     6fc:	14 86       	std	Z+12, r1	; 0x0c
     6fe:	13 86       	std	Z+11, r1	; 0x0b
     700:	16 86       	std	Z+14, r1	; 0x0e
     702:	15 86       	std	Z+13, r1	; 0x0d
     704:	10 8a       	std	Z+16, r1	; 0x10
     706:	17 86       	std	Z+15, r1	; 0x0f
     708:	12 8a       	std	Z+18, r1	; 0x12
     70a:	11 8a       	std	Z+17, r1	; 0x11
     70c:	14 8a       	std	Z+20, r1	; 0x14
     70e:	13 8a       	std	Z+19, r1	; 0x13
     710:	75 96       	adiw	r30, 0x15	; 21
     712:	e8 17       	cp	r30, r24
     714:	f9 07       	cpc	r31, r25
     716:	39 f7       	brne	.-50     	; 0x6e6 <ctcInit+0x8>
     718:	81 e0       	ldi	r24, 0x01	; 1
     71a:	08 95       	ret

0000071c <ctcBegin>:
     71c:	cf 93       	push	r28
     71e:	df 93       	push	r29
     720:	c8 2f       	mov	r28, r24
     722:	d0 e0       	ldi	r29, 0x00	; 0
     724:	81 30       	cpi	r24, 0x01	; 1
     726:	09 f4       	brne	.+2      	; 0x72a <ctcBegin+0xe>
     728:	57 c0       	rjmp	.+174    	; 0x7d8 <ctcBegin+0xbc>
     72a:	38 f0       	brcs	.+14     	; 0x73a <ctcBegin+0x1e>
     72c:	82 30       	cpi	r24, 0x02	; 2
     72e:	09 f4       	brne	.+2      	; 0x732 <ctcBegin+0x16>
     730:	78 c0       	rjmp	.+240    	; 0x822 <ctcBegin+0x106>
     732:	83 30       	cpi	r24, 0x03	; 3
     734:	09 f4       	brne	.+2      	; 0x738 <ctcBegin+0x1c>
     736:	c3 c0       	rjmp	.+390    	; 0x8be <ctcBegin+0x1a2>
     738:	e7 c0       	rjmp	.+462    	; 0x908 <ctcBegin+0x1ec>
     73a:	85 e1       	ldi	r24, 0x15	; 21
     73c:	8c 9f       	mul	r24, r28
     73e:	d0 01       	movw	r26, r0
     740:	8d 9f       	mul	r24, r29
     742:	b0 0d       	add	r27, r0
     744:	11 24       	eor	r1, r1
     746:	aa 50       	subi	r26, 0x0A	; 10
     748:	bc 4f       	sbci	r27, 0xFC	; 252
     74a:	ef ee       	ldi	r30, 0xEF	; 239
     74c:	f3 e0       	ldi	r31, 0x03	; 3
     74e:	1e 96       	adiw	r26, 0x0e	; 14
     750:	fc 93       	st	X, r31
     752:	ee 93       	st	-X, r30
     754:	1d 97       	sbiw	r26, 0x0d	; 13
     756:	88 ed       	ldi	r24, 0xD8	; 216
     758:	93 e0       	ldi	r25, 0x03	; 3
     75a:	52 96       	adiw	r26, 0x12	; 18
     75c:	9c 93       	st	X, r25
     75e:	8e 93       	st	-X, r24
     760:	51 97       	sbiw	r26, 0x11	; 17
     762:	10 82       	st	Z, r1
     764:	85 e0       	ldi	r24, 0x05	; 5
     766:	82 83       	std	Z+2, r24	; 0x02
     768:	11 82       	std	Z+1, r1	; 0x01
     76a:	13 82       	std	Z+3, r1	; 0x03
     76c:	cf 01       	movw	r24, r30
     76e:	0e 94 9d 0d 	call	0x1b3a	; 0x1b3a <TIM8_Base_Init>
     772:	81 11       	cpse	r24, r1
     774:	cb c0       	rjmp	.+406    	; 0x90c <ctcBegin+0x1f0>
     776:	85 e1       	ldi	r24, 0x15	; 21
     778:	8c 9f       	mul	r24, r28
     77a:	f0 01       	movw	r30, r0
     77c:	8d 9f       	mul	r24, r29
     77e:	f0 0d       	add	r31, r0
     780:	11 24       	eor	r1, r1
     782:	ea 50       	subi	r30, 0x0A	; 10
     784:	fc 4f       	sbci	r31, 0xFC	; 252
     786:	81 e0       	ldi	r24, 0x01	; 1
     788:	80 83       	st	Z, r24
     78a:	a1 89       	ldd	r26, Z+17	; 0x11
     78c:	b2 89       	ldd	r27, Z+18	; 0x12
     78e:	8c 93       	st	X, r24
     790:	a1 89       	ldd	r26, Z+17	; 0x11
     792:	b2 89       	ldd	r27, Z+18	; 0x12
     794:	11 96       	adiw	r26, 0x01	; 1
     796:	8c 93       	st	X, r24
     798:	a1 89       	ldd	r26, Z+17	; 0x11
     79a:	b2 89       	ldd	r27, Z+18	; 0x12
     79c:	12 96       	adiw	r26, 0x02	; 2
     79e:	8c 93       	st	X, r24
     7a0:	a1 89       	ldd	r26, Z+17	; 0x11
     7a2:	b2 89       	ldd	r27, Z+18	; 0x12
     7a4:	13 96       	adiw	r26, 0x03	; 3
     7a6:	1c 92       	st	X, r1
     7a8:	a1 89       	ldd	r26, Z+17	; 0x11
     7aa:	b2 89       	ldd	r27, Z+18	; 0x12
     7ac:	14 96       	adiw	r26, 0x04	; 4
     7ae:	1c 92       	st	X, r1
     7b0:	61 89       	ldd	r22, Z+17	; 0x11
     7b2:	72 89       	ldd	r23, Z+18	; 0x12
     7b4:	85 85       	ldd	r24, Z+13	; 0x0d
     7b6:	96 85       	ldd	r25, Z+14	; 0x0e
     7b8:	0e 94 f0 0d 	call	0x1be0	; 0x1be0 <TIM8_OC_Init>
     7bc:	88 23       	and	r24, r24
     7be:	09 f4       	brne	.+2      	; 0x7c2 <ctcBegin+0xa6>
     7c0:	a7 c0       	rjmp	.+334    	; 0x910 <ctcBegin+0x1f4>
     7c2:	85 e1       	ldi	r24, 0x15	; 21
     7c4:	8c 9f       	mul	r24, r28
     7c6:	f0 01       	movw	r30, r0
     7c8:	8d 9f       	mul	r24, r29
     7ca:	f0 0d       	add	r31, r0
     7cc:	11 24       	eor	r1, r1
     7ce:	ea 50       	subi	r30, 0x0A	; 10
     7d0:	fc 4f       	sbci	r31, 0xFC	; 252
     7d2:	10 82       	st	Z, r1
     7d4:	80 e0       	ldi	r24, 0x00	; 0
     7d6:	a1 c0       	rjmp	.+322    	; 0x91a <ctcBegin+0x1fe>
     7d8:	85 e1       	ldi	r24, 0x15	; 21
     7da:	8c 9f       	mul	r24, r28
     7dc:	f0 01       	movw	r30, r0
     7de:	8d 9f       	mul	r24, r29
     7e0:	f0 0d       	add	r31, r0
     7e2:	11 24       	eor	r1, r1
     7e4:	ea 50       	subi	r30, 0x0A	; 10
     7e6:	fc 4f       	sbci	r31, 0xFC	; 252
     7e8:	ad ed       	ldi	r26, 0xDD	; 221
     7ea:	b3 e0       	ldi	r27, 0x03	; 3
     7ec:	b0 8b       	std	Z+16, r27	; 0x10
     7ee:	a7 87       	std	Z+15, r26	; 0x0f
     7f0:	c6 ee       	ldi	r28, 0xE6	; 230
     7f2:	d3 e0       	ldi	r29, 0x03	; 3
     7f4:	d4 8b       	std	Z+20, r29	; 0x14
     7f6:	c3 8b       	std	Z+19, r28	; 0x13
     7f8:	81 e0       	ldi	r24, 0x01	; 1
     7fa:	8c 93       	st	X, r24
     7fc:	95 e0       	ldi	r25, 0x05	; 5
     7fe:	12 96       	adiw	r26, 0x02	; 2
     800:	9c 93       	st	X, r25
     802:	12 97       	sbiw	r26, 0x02	; 2
     804:	11 96       	adiw	r26, 0x01	; 1
     806:	1c 92       	st	X, r1
     808:	11 97       	sbiw	r26, 0x01	; 1
     80a:	15 96       	adiw	r26, 0x05	; 5
     80c:	1c 92       	st	X, r1
     80e:	1e 92       	st	-X, r1
     810:	14 97       	sbiw	r26, 0x04	; 4
     812:	1c 82       	std	Y+4, r1	; 0x04
     814:	1b 82       	std	Y+3, r1	; 0x03
     816:	1e 82       	std	Y+6, r1	; 0x06
     818:	1d 82       	std	Y+5, r1	; 0x05
     81a:	18 86       	std	Y+8, r1	; 0x08
     81c:	1f 82       	std	Y+7, r1	; 0x07
     81e:	80 83       	st	Z, r24
     820:	7c c0       	rjmp	.+248    	; 0x91a <ctcBegin+0x1fe>
     822:	85 e1       	ldi	r24, 0x15	; 21
     824:	8c 9f       	mul	r24, r28
     826:	d0 01       	movw	r26, r0
     828:	8d 9f       	mul	r24, r29
     82a:	b0 0d       	add	r27, r0
     82c:	11 24       	eor	r1, r1
     82e:	aa 50       	subi	r26, 0x0A	; 10
     830:	bc 4f       	sbci	r27, 0xFC	; 252
     832:	e3 e5       	ldi	r30, 0x53	; 83
     834:	f4 e0       	ldi	r31, 0x04	; 4
     836:	1e 96       	adiw	r26, 0x0e	; 14
     838:	fc 93       	st	X, r31
     83a:	ee 93       	st	-X, r30
     83c:	1d 97       	sbiw	r26, 0x0d	; 13
     83e:	8a e5       	ldi	r24, 0x5A	; 90
     840:	94 e0       	ldi	r25, 0x04	; 4
     842:	52 96       	adiw	r26, 0x12	; 18
     844:	9c 93       	st	X, r25
     846:	8e 93       	st	-X, r24
     848:	51 97       	sbiw	r26, 0x11	; 17
     84a:	82 e0       	ldi	r24, 0x02	; 2
     84c:	80 83       	st	Z, r24
     84e:	85 e0       	ldi	r24, 0x05	; 5
     850:	82 83       	std	Z+2, r24	; 0x02
     852:	11 82       	std	Z+1, r1	; 0x01
     854:	cf 01       	movw	r24, r30
     856:	0e 94 9d 0d 	call	0x1b3a	; 0x1b3a <TIM8_Base_Init>
     85a:	81 11       	cpse	r24, r1
     85c:	5b c0       	rjmp	.+182    	; 0x914 <ctcBegin+0x1f8>
     85e:	85 e1       	ldi	r24, 0x15	; 21
     860:	8c 9f       	mul	r24, r28
     862:	f0 01       	movw	r30, r0
     864:	8d 9f       	mul	r24, r29
     866:	f0 0d       	add	r31, r0
     868:	11 24       	eor	r1, r1
     86a:	ea 50       	subi	r30, 0x0A	; 10
     86c:	fc 4f       	sbci	r31, 0xFC	; 252
     86e:	81 e0       	ldi	r24, 0x01	; 1
     870:	80 83       	st	Z, r24
     872:	a1 89       	ldd	r26, Z+17	; 0x11
     874:	b2 89       	ldd	r27, Z+18	; 0x12
     876:	8c 93       	st	X, r24
     878:	a1 89       	ldd	r26, Z+17	; 0x11
     87a:	b2 89       	ldd	r27, Z+18	; 0x12
     87c:	11 96       	adiw	r26, 0x01	; 1
     87e:	8c 93       	st	X, r24
     880:	a1 89       	ldd	r26, Z+17	; 0x11
     882:	b2 89       	ldd	r27, Z+18	; 0x12
     884:	12 96       	adiw	r26, 0x02	; 2
     886:	8c 93       	st	X, r24
     888:	a1 89       	ldd	r26, Z+17	; 0x11
     88a:	b2 89       	ldd	r27, Z+18	; 0x12
     88c:	13 96       	adiw	r26, 0x03	; 3
     88e:	1c 92       	st	X, r1
     890:	a1 89       	ldd	r26, Z+17	; 0x11
     892:	b2 89       	ldd	r27, Z+18	; 0x12
     894:	14 96       	adiw	r26, 0x04	; 4
     896:	1c 92       	st	X, r1
     898:	61 89       	ldd	r22, Z+17	; 0x11
     89a:	72 89       	ldd	r23, Z+18	; 0x12
     89c:	85 85       	ldd	r24, Z+13	; 0x0d
     89e:	96 85       	ldd	r25, Z+14	; 0x0e
     8a0:	0e 94 f0 0d 	call	0x1be0	; 0x1be0 <TIM8_OC_Init>
     8a4:	88 23       	and	r24, r24
     8a6:	c1 f1       	breq	.+112    	; 0x918 <ctcBegin+0x1fc>
     8a8:	85 e1       	ldi	r24, 0x15	; 21
     8aa:	8c 9f       	mul	r24, r28
     8ac:	f0 01       	movw	r30, r0
     8ae:	8d 9f       	mul	r24, r29
     8b0:	f0 0d       	add	r31, r0
     8b2:	11 24       	eor	r1, r1
     8b4:	ea 50       	subi	r30, 0x0A	; 10
     8b6:	fc 4f       	sbci	r31, 0xFC	; 252
     8b8:	10 82       	st	Z, r1
     8ba:	80 e0       	ldi	r24, 0x00	; 0
     8bc:	2e c0       	rjmp	.+92     	; 0x91a <ctcBegin+0x1fe>
     8be:	85 e1       	ldi	r24, 0x15	; 21
     8c0:	8c 9f       	mul	r24, r28
     8c2:	f0 01       	movw	r30, r0
     8c4:	8d 9f       	mul	r24, r29
     8c6:	f0 0d       	add	r31, r0
     8c8:	11 24       	eor	r1, r1
     8ca:	ea 50       	subi	r30, 0x0A	; 10
     8cc:	fc 4f       	sbci	r31, 0xFC	; 252
     8ce:	af ec       	ldi	r26, 0xCF	; 207
     8d0:	b3 e0       	ldi	r27, 0x03	; 3
     8d2:	b0 8b       	std	Z+16, r27	; 0x10
     8d4:	a7 87       	std	Z+15, r26	; 0x0f
     8d6:	ca e4       	ldi	r28, 0x4A	; 74
     8d8:	d4 e0       	ldi	r29, 0x04	; 4
     8da:	d4 8b       	std	Z+20, r29	; 0x14
     8dc:	c3 8b       	std	Z+19, r28	; 0x13
     8de:	83 e0       	ldi	r24, 0x03	; 3
     8e0:	8c 93       	st	X, r24
     8e2:	12 96       	adiw	r26, 0x02	; 2
     8e4:	1c 92       	st	X, r1
     8e6:	12 97       	sbiw	r26, 0x02	; 2
     8e8:	11 96       	adiw	r26, 0x01	; 1
     8ea:	1c 92       	st	X, r1
     8ec:	11 97       	sbiw	r26, 0x01	; 1
     8ee:	15 96       	adiw	r26, 0x05	; 5
     8f0:	1c 92       	st	X, r1
     8f2:	1e 92       	st	-X, r1
     8f4:	14 97       	sbiw	r26, 0x04	; 4
     8f6:	1c 82       	std	Y+4, r1	; 0x04
     8f8:	1b 82       	std	Y+3, r1	; 0x03
     8fa:	1e 82       	std	Y+6, r1	; 0x06
     8fc:	1d 82       	std	Y+5, r1	; 0x05
     8fe:	18 86       	std	Y+8, r1	; 0x08
     900:	1f 82       	std	Y+7, r1	; 0x07
     902:	81 e0       	ldi	r24, 0x01	; 1
     904:	80 83       	st	Z, r24
     906:	09 c0       	rjmp	.+18     	; 0x91a <ctcBegin+0x1fe>
     908:	80 e0       	ldi	r24, 0x00	; 0
     90a:	07 c0       	rjmp	.+14     	; 0x91a <ctcBegin+0x1fe>
     90c:	80 e0       	ldi	r24, 0x00	; 0
     90e:	05 c0       	rjmp	.+10     	; 0x91a <ctcBegin+0x1fe>
     910:	81 e0       	ldi	r24, 0x01	; 1
     912:	03 c0       	rjmp	.+6      	; 0x91a <ctcBegin+0x1fe>
     914:	80 e0       	ldi	r24, 0x00	; 0
     916:	01 c0       	rjmp	.+2      	; 0x91a <ctcBegin+0x1fe>
     918:	81 e0       	ldi	r24, 0x01	; 1
     91a:	df 91       	pop	r29
     91c:	cf 91       	pop	r28
     91e:	08 95       	ret

00000920 <ctcStart>:
     920:	28 2f       	mov	r18, r24
     922:	30 e0       	ldi	r19, 0x00	; 0
     924:	81 30       	cpi	r24, 0x01	; 1
     926:	b9 f0       	breq	.+46     	; 0x956 <ctcStart+0x36>
     928:	28 f0       	brcs	.+10     	; 0x934 <ctcStart+0x14>
     92a:	82 30       	cpi	r24, 0x02	; 2
     92c:	29 f1       	breq	.+74     	; 0x978 <ctcStart+0x58>
     92e:	83 30       	cpi	r24, 0x03	; 3
     930:	a1 f1       	breq	.+104    	; 0x99a <ctcStart+0x7a>
     932:	44 c0       	rjmp	.+136    	; 0x9bc <ctcStart+0x9c>
     934:	85 e1       	ldi	r24, 0x15	; 21
     936:	82 9f       	mul	r24, r18
     938:	f0 01       	movw	r30, r0
     93a:	83 9f       	mul	r24, r19
     93c:	f0 0d       	add	r31, r0
     93e:	11 24       	eor	r1, r1
     940:	ea 50       	subi	r30, 0x0A	; 10
     942:	fc 4f       	sbci	r31, 0xFC	; 252
     944:	85 85       	ldd	r24, Z+13	; 0x0d
     946:	96 85       	ldd	r25, Z+14	; 0x0e
     948:	0e 94 b1 0f 	call	0x1f62	; 0x1f62 <TIM8_OC_Start>
     94c:	91 e0       	ldi	r25, 0x01	; 1
     94e:	88 23       	and	r24, r24
     950:	b1 f1       	breq	.+108    	; 0x9be <ctcStart+0x9e>
     952:	90 e0       	ldi	r25, 0x00	; 0
     954:	34 c0       	rjmp	.+104    	; 0x9be <ctcStart+0x9e>
     956:	85 e1       	ldi	r24, 0x15	; 21
     958:	82 9f       	mul	r24, r18
     95a:	f0 01       	movw	r30, r0
     95c:	83 9f       	mul	r24, r19
     95e:	f0 0d       	add	r31, r0
     960:	11 24       	eor	r1, r1
     962:	ea 50       	subi	r30, 0x0A	; 10
     964:	fc 4f       	sbci	r31, 0xFC	; 252
     966:	87 85       	ldd	r24, Z+15	; 0x0f
     968:	90 89       	ldd	r25, Z+16	; 0x10
     96a:	0e 94 ad 10 	call	0x215a	; 0x215a <TIM16_OC_Start>
     96e:	91 e0       	ldi	r25, 0x01	; 1
     970:	88 23       	and	r24, r24
     972:	29 f1       	breq	.+74     	; 0x9be <ctcStart+0x9e>
     974:	90 e0       	ldi	r25, 0x00	; 0
     976:	23 c0       	rjmp	.+70     	; 0x9be <ctcStart+0x9e>
     978:	85 e1       	ldi	r24, 0x15	; 21
     97a:	82 9f       	mul	r24, r18
     97c:	f0 01       	movw	r30, r0
     97e:	83 9f       	mul	r24, r19
     980:	f0 0d       	add	r31, r0
     982:	11 24       	eor	r1, r1
     984:	ea 50       	subi	r30, 0x0A	; 10
     986:	fc 4f       	sbci	r31, 0xFC	; 252
     988:	85 85       	ldd	r24, Z+13	; 0x0d
     98a:	96 85       	ldd	r25, Z+14	; 0x0e
     98c:	0e 94 b1 0f 	call	0x1f62	; 0x1f62 <TIM8_OC_Start>
     990:	91 e0       	ldi	r25, 0x01	; 1
     992:	88 23       	and	r24, r24
     994:	a1 f0       	breq	.+40     	; 0x9be <ctcStart+0x9e>
     996:	90 e0       	ldi	r25, 0x00	; 0
     998:	12 c0       	rjmp	.+36     	; 0x9be <ctcStart+0x9e>
     99a:	85 e1       	ldi	r24, 0x15	; 21
     99c:	82 9f       	mul	r24, r18
     99e:	f0 01       	movw	r30, r0
     9a0:	83 9f       	mul	r24, r19
     9a2:	f0 0d       	add	r31, r0
     9a4:	11 24       	eor	r1, r1
     9a6:	ea 50       	subi	r30, 0x0A	; 10
     9a8:	fc 4f       	sbci	r31, 0xFC	; 252
     9aa:	87 85       	ldd	r24, Z+15	; 0x0f
     9ac:	90 89       	ldd	r25, Z+16	; 0x10
     9ae:	0e 94 ad 10 	call	0x215a	; 0x215a <TIM16_OC_Start>
     9b2:	91 e0       	ldi	r25, 0x01	; 1
     9b4:	88 23       	and	r24, r24
     9b6:	19 f0       	breq	.+6      	; 0x9be <ctcStart+0x9e>
     9b8:	90 e0       	ldi	r25, 0x00	; 0
     9ba:	01 c0       	rjmp	.+2      	; 0x9be <ctcStart+0x9e>
     9bc:	91 e0       	ldi	r25, 0x01	; 1
     9be:	89 2f       	mov	r24, r25
     9c0:	08 95       	ret

000009c2 <ctcStop>:
     9c2:	28 2f       	mov	r18, r24
     9c4:	30 e0       	ldi	r19, 0x00	; 0
     9c6:	81 30       	cpi	r24, 0x01	; 1
     9c8:	b9 f0       	breq	.+46     	; 0x9f8 <ctcStop+0x36>
     9ca:	28 f0       	brcs	.+10     	; 0x9d6 <ctcStop+0x14>
     9cc:	82 30       	cpi	r24, 0x02	; 2
     9ce:	29 f1       	breq	.+74     	; 0xa1a <ctcStop+0x58>
     9d0:	83 30       	cpi	r24, 0x03	; 3
     9d2:	a1 f1       	breq	.+104    	; 0xa3c <ctcStop+0x7a>
     9d4:	44 c0       	rjmp	.+136    	; 0xa5e <ctcStop+0x9c>
     9d6:	85 e1       	ldi	r24, 0x15	; 21
     9d8:	82 9f       	mul	r24, r18
     9da:	f0 01       	movw	r30, r0
     9dc:	83 9f       	mul	r24, r19
     9de:	f0 0d       	add	r31, r0
     9e0:	11 24       	eor	r1, r1
     9e2:	ea 50       	subi	r30, 0x0A	; 10
     9e4:	fc 4f       	sbci	r31, 0xFC	; 252
     9e6:	85 85       	ldd	r24, Z+13	; 0x0d
     9e8:	96 85       	ldd	r25, Z+14	; 0x0e
     9ea:	0e 94 89 0e 	call	0x1d12	; 0x1d12 <TIM8_OC_Stop>
     9ee:	91 e0       	ldi	r25, 0x01	; 1
     9f0:	88 23       	and	r24, r24
     9f2:	b1 f1       	breq	.+108    	; 0xa60 <ctcStop+0x9e>
     9f4:	90 e0       	ldi	r25, 0x00	; 0
     9f6:	34 c0       	rjmp	.+104    	; 0xa60 <ctcStop+0x9e>
     9f8:	85 e1       	ldi	r24, 0x15	; 21
     9fa:	82 9f       	mul	r24, r18
     9fc:	f0 01       	movw	r30, r0
     9fe:	83 9f       	mul	r24, r19
     a00:	f0 0d       	add	r31, r0
     a02:	11 24       	eor	r1, r1
     a04:	ea 50       	subi	r30, 0x0A	; 10
     a06:	fc 4f       	sbci	r31, 0xFC	; 252
     a08:	87 85       	ldd	r24, Z+15	; 0x0f
     a0a:	90 89       	ldd	r25, Z+16	; 0x10
     a0c:	0e 94 9e 0e 	call	0x1d3c	; 0x1d3c <TIM16_OC_Stop>
     a10:	91 e0       	ldi	r25, 0x01	; 1
     a12:	88 23       	and	r24, r24
     a14:	29 f1       	breq	.+74     	; 0xa60 <ctcStop+0x9e>
     a16:	90 e0       	ldi	r25, 0x00	; 0
     a18:	23 c0       	rjmp	.+70     	; 0xa60 <ctcStop+0x9e>
     a1a:	85 e1       	ldi	r24, 0x15	; 21
     a1c:	82 9f       	mul	r24, r18
     a1e:	f0 01       	movw	r30, r0
     a20:	83 9f       	mul	r24, r19
     a22:	f0 0d       	add	r31, r0
     a24:	11 24       	eor	r1, r1
     a26:	ea 50       	subi	r30, 0x0A	; 10
     a28:	fc 4f       	sbci	r31, 0xFC	; 252
     a2a:	85 85       	ldd	r24, Z+13	; 0x0d
     a2c:	96 85       	ldd	r25, Z+14	; 0x0e
     a2e:	0e 94 89 0e 	call	0x1d12	; 0x1d12 <TIM8_OC_Stop>
     a32:	91 e0       	ldi	r25, 0x01	; 1
     a34:	88 23       	and	r24, r24
     a36:	a1 f0       	breq	.+40     	; 0xa60 <ctcStop+0x9e>
     a38:	90 e0       	ldi	r25, 0x00	; 0
     a3a:	12 c0       	rjmp	.+36     	; 0xa60 <ctcStop+0x9e>
     a3c:	85 e1       	ldi	r24, 0x15	; 21
     a3e:	82 9f       	mul	r24, r18
     a40:	f0 01       	movw	r30, r0
     a42:	83 9f       	mul	r24, r19
     a44:	f0 0d       	add	r31, r0
     a46:	11 24       	eor	r1, r1
     a48:	ea 50       	subi	r30, 0x0A	; 10
     a4a:	fc 4f       	sbci	r31, 0xFC	; 252
     a4c:	87 85       	ldd	r24, Z+15	; 0x0f
     a4e:	90 89       	ldd	r25, Z+16	; 0x10
     a50:	0e 94 9e 0e 	call	0x1d3c	; 0x1d3c <TIM16_OC_Stop>
     a54:	91 e0       	ldi	r25, 0x01	; 1
     a56:	88 23       	and	r24, r24
     a58:	19 f0       	breq	.+6      	; 0xa60 <ctcStop+0x9e>
     a5a:	90 e0       	ldi	r25, 0x00	; 0
     a5c:	01 c0       	rjmp	.+2      	; 0xa60 <ctcStop+0x9e>
     a5e:	91 e0       	ldi	r25, 0x01	; 1
     a60:	89 2f       	mov	r24, r25
     a62:	08 95       	ret

00000a64 <ctcSetTcnt>:
     a64:	28 2f       	mov	r18, r24
     a66:	30 e0       	ldi	r19, 0x00	; 0
     a68:	81 30       	cpi	r24, 0x01	; 1
     a6a:	d1 f0       	breq	.+52     	; 0xaa0 <ctcSetTcnt+0x3c>
     a6c:	30 f0       	brcs	.+12     	; 0xa7a <ctcSetTcnt+0x16>
     a6e:	82 30       	cpi	r24, 0x02	; 2
     a70:	a9 f1       	breq	.+106    	; 0xadc <ctcSetTcnt+0x78>
     a72:	83 30       	cpi	r24, 0x03	; 3
     a74:	09 f4       	brne	.+2      	; 0xa78 <ctcSetTcnt+0x14>
     a76:	45 c0       	rjmp	.+138    	; 0xb02 <ctcSetTcnt+0x9e>
     a78:	61 c0       	rjmp	.+194    	; 0xb3c <ctcSetTcnt+0xd8>
     a7a:	85 e1       	ldi	r24, 0x15	; 21
     a7c:	82 9f       	mul	r24, r18
     a7e:	f0 01       	movw	r30, r0
     a80:	83 9f       	mul	r24, r19
     a82:	f0 0d       	add	r31, r0
     a84:	11 24       	eor	r1, r1
     a86:	ea 50       	subi	r30, 0x0A	; 10
     a88:	fc 4f       	sbci	r31, 0xFC	; 252
     a8a:	05 84       	ldd	r0, Z+13	; 0x0d
     a8c:	f6 85       	ldd	r31, Z+14	; 0x0e
     a8e:	e0 2d       	mov	r30, r0
     a90:	04 80       	ldd	r0, Z+4	; 0x04
     a92:	f5 81       	ldd	r31, Z+5	; 0x05
     a94:	e0 2d       	mov	r30, r0
     a96:	02 80       	ldd	r0, Z+2	; 0x02
     a98:	f3 81       	ldd	r31, Z+3	; 0x03
     a9a:	e0 2d       	mov	r30, r0
     a9c:	60 83       	st	Z, r22
     a9e:	4e c0       	rjmp	.+156    	; 0xb3c <ctcSetTcnt+0xd8>
     aa0:	85 e1       	ldi	r24, 0x15	; 21
     aa2:	82 9f       	mul	r24, r18
     aa4:	f0 01       	movw	r30, r0
     aa6:	83 9f       	mul	r24, r19
     aa8:	f0 0d       	add	r31, r0
     aaa:	11 24       	eor	r1, r1
     aac:	ea 50       	subi	r30, 0x0A	; 10
     aae:	fc 4f       	sbci	r31, 0xFC	; 252
     ab0:	a7 85       	ldd	r26, Z+15	; 0x0f
     ab2:	b0 89       	ldd	r27, Z+16	; 0x10
     ab4:	16 96       	adiw	r26, 0x06	; 6
     ab6:	0d 90       	ld	r0, X+
     ab8:	bc 91       	ld	r27, X
     aba:	a0 2d       	mov	r26, r0
     abc:	18 96       	adiw	r26, 0x08	; 8
     abe:	0d 90       	ld	r0, X+
     ac0:	bc 91       	ld	r27, X
     ac2:	a0 2d       	mov	r26, r0
     ac4:	7c 93       	st	X, r23
     ac6:	07 84       	ldd	r0, Z+15	; 0x0f
     ac8:	f0 89       	ldd	r31, Z+16	; 0x10
     aca:	e0 2d       	mov	r30, r0
     acc:	06 80       	ldd	r0, Z+6	; 0x06
     ace:	f7 81       	ldd	r31, Z+7	; 0x07
     ad0:	e0 2d       	mov	r30, r0
     ad2:	06 80       	ldd	r0, Z+6	; 0x06
     ad4:	f7 81       	ldd	r31, Z+7	; 0x07
     ad6:	e0 2d       	mov	r30, r0
     ad8:	60 83       	st	Z, r22
     ada:	30 c0       	rjmp	.+96     	; 0xb3c <ctcSetTcnt+0xd8>
     adc:	85 e1       	ldi	r24, 0x15	; 21
     ade:	82 9f       	mul	r24, r18
     ae0:	f0 01       	movw	r30, r0
     ae2:	83 9f       	mul	r24, r19
     ae4:	f0 0d       	add	r31, r0
     ae6:	11 24       	eor	r1, r1
     ae8:	ea 50       	subi	r30, 0x0A	; 10
     aea:	fc 4f       	sbci	r31, 0xFC	; 252
     aec:	05 84       	ldd	r0, Z+13	; 0x0d
     aee:	f6 85       	ldd	r31, Z+14	; 0x0e
     af0:	e0 2d       	mov	r30, r0
     af2:	04 80       	ldd	r0, Z+4	; 0x04
     af4:	f5 81       	ldd	r31, Z+5	; 0x05
     af6:	e0 2d       	mov	r30, r0
     af8:	02 80       	ldd	r0, Z+2	; 0x02
     afa:	f3 81       	ldd	r31, Z+3	; 0x03
     afc:	e0 2d       	mov	r30, r0
     afe:	60 83       	st	Z, r22
     b00:	1d c0       	rjmp	.+58     	; 0xb3c <ctcSetTcnt+0xd8>
     b02:	85 e1       	ldi	r24, 0x15	; 21
     b04:	82 9f       	mul	r24, r18
     b06:	f0 01       	movw	r30, r0
     b08:	83 9f       	mul	r24, r19
     b0a:	f0 0d       	add	r31, r0
     b0c:	11 24       	eor	r1, r1
     b0e:	ea 50       	subi	r30, 0x0A	; 10
     b10:	fc 4f       	sbci	r31, 0xFC	; 252
     b12:	a7 85       	ldd	r26, Z+15	; 0x0f
     b14:	b0 89       	ldd	r27, Z+16	; 0x10
     b16:	16 96       	adiw	r26, 0x06	; 6
     b18:	0d 90       	ld	r0, X+
     b1a:	bc 91       	ld	r27, X
     b1c:	a0 2d       	mov	r26, r0
     b1e:	18 96       	adiw	r26, 0x08	; 8
     b20:	0d 90       	ld	r0, X+
     b22:	bc 91       	ld	r27, X
     b24:	a0 2d       	mov	r26, r0
     b26:	7c 93       	st	X, r23
     b28:	07 84       	ldd	r0, Z+15	; 0x0f
     b2a:	f0 89       	ldd	r31, Z+16	; 0x10
     b2c:	e0 2d       	mov	r30, r0
     b2e:	06 80       	ldd	r0, Z+6	; 0x06
     b30:	f7 81       	ldd	r31, Z+7	; 0x07
     b32:	e0 2d       	mov	r30, r0
     b34:	06 80       	ldd	r0, Z+6	; 0x06
     b36:	f7 81       	ldd	r31, Z+7	; 0x07
     b38:	e0 2d       	mov	r30, r0
     b3a:	60 83       	st	Z, r22
     b3c:	81 e0       	ldi	r24, 0x01	; 1
     b3e:	08 95       	ret

00000b40 <ctcSetOcr>:

bool ctcSetOcr(uint8_t ch_, uint16_t ocr_, uint8_t channel_)
{
	bool ret = true;
	ctc_t *p_ctc = &ctc_tbl[ch_];
     b40:	28 2f       	mov	r18, r24
     b42:	30 e0       	ldi	r19, 0x00	; 0
	switch(ch_)
     b44:	88 23       	and	r24, r24
     b46:	19 f0       	breq	.+6      	; 0xb4e <ctcSetOcr+0xe>
     b48:	82 30       	cpi	r24, 0x02	; 2
     b4a:	a1 f0       	breq	.+40     	; 0xb74 <ctcSetOcr+0x34>
     b4c:	25 c0       	rjmp	.+74     	; 0xb98 <ctcSetOcr+0x58>
	{
		case _DEF_TIM0:
		*(p_ctc->h_tim8->Regs->OCRn) = ocr_ & 0xFF;
     b4e:	85 e1       	ldi	r24, 0x15	; 21
     b50:	82 9f       	mul	r24, r18
     b52:	f0 01       	movw	r30, r0
     b54:	83 9f       	mul	r24, r19
     b56:	f0 0d       	add	r31, r0
     b58:	11 24       	eor	r1, r1
     b5a:	ea 50       	subi	r30, 0x0A	; 10
     b5c:	fc 4f       	sbci	r31, 0xFC	; 252
     b5e:	05 84       	ldd	r0, Z+13	; 0x0d
     b60:	f6 85       	ldd	r31, Z+14	; 0x0e
     b62:	e0 2d       	mov	r30, r0
     b64:	04 80       	ldd	r0, Z+4	; 0x04
     b66:	f5 81       	ldd	r31, Z+5	; 0x05
     b68:	e0 2d       	mov	r30, r0
     b6a:	04 80       	ldd	r0, Z+4	; 0x04
     b6c:	f5 81       	ldd	r31, Z+5	; 0x05
     b6e:	e0 2d       	mov	r30, r0
     b70:	60 83       	st	Z, r22
		break;
     b72:	12 c0       	rjmp	.+36     	; 0xb98 <ctcSetOcr+0x58>
		case _DEF_TIM2:
		*(p_ctc->h_tim8->Regs->OCRn) = ocr_ & 0xFF;
     b74:	85 e1       	ldi	r24, 0x15	; 21
     b76:	82 9f       	mul	r24, r18
     b78:	f0 01       	movw	r30, r0
     b7a:	83 9f       	mul	r24, r19
     b7c:	f0 0d       	add	r31, r0
     b7e:	11 24       	eor	r1, r1
     b80:	ea 50       	subi	r30, 0x0A	; 10
     b82:	fc 4f       	sbci	r31, 0xFC	; 252
     b84:	05 84       	ldd	r0, Z+13	; 0x0d
     b86:	f6 85       	ldd	r31, Z+14	; 0x0e
     b88:	e0 2d       	mov	r30, r0
     b8a:	04 80       	ldd	r0, Z+4	; 0x04
     b8c:	f5 81       	ldd	r31, Z+5	; 0x05
     b8e:	e0 2d       	mov	r30, r0
     b90:	04 80       	ldd	r0, Z+4	; 0x04
     b92:	f5 81       	ldd	r31, Z+5	; 0x05
     b94:	e0 2d       	mov	r30, r0
     b96:	60 83       	st	Z, r22
		break;
		default:
		break;
	}
	
	if (channel_ == _DEF_CH_A)
     b98:	41 30       	cpi	r20, 0x01	; 1
     b9a:	f1 f4       	brne	.+60     	; 0xbd8 <ctcSetOcr+0x98>
	{
		*(p_ctc->h_tim16->Regs->OCRnAH) = (ocr_ >> 8) & 0xFF;
     b9c:	85 e1       	ldi	r24, 0x15	; 21
     b9e:	82 9f       	mul	r24, r18
     ba0:	f0 01       	movw	r30, r0
     ba2:	83 9f       	mul	r24, r19
     ba4:	f0 0d       	add	r31, r0
     ba6:	11 24       	eor	r1, r1
     ba8:	ea 50       	subi	r30, 0x0A	; 10
     baa:	fc 4f       	sbci	r31, 0xFC	; 252
     bac:	a7 85       	ldd	r26, Z+15	; 0x0f
     bae:	b0 89       	ldd	r27, Z+16	; 0x10
     bb0:	16 96       	adiw	r26, 0x06	; 6
     bb2:	0d 90       	ld	r0, X+
     bb4:	bc 91       	ld	r27, X
     bb6:	a0 2d       	mov	r26, r0
     bb8:	1c 96       	adiw	r26, 0x0c	; 12
     bba:	0d 90       	ld	r0, X+
     bbc:	bc 91       	ld	r27, X
     bbe:	a0 2d       	mov	r26, r0
     bc0:	7c 93       	st	X, r23
		*(p_ctc->h_tim16->Regs->OCRnAL) = (ocr_ & 0xFF);
     bc2:	07 84       	ldd	r0, Z+15	; 0x0f
     bc4:	f0 89       	ldd	r31, Z+16	; 0x10
     bc6:	e0 2d       	mov	r30, r0
     bc8:	06 80       	ldd	r0, Z+6	; 0x06
     bca:	f7 81       	ldd	r31, Z+7	; 0x07
     bcc:	e0 2d       	mov	r30, r0
     bce:	02 84       	ldd	r0, Z+10	; 0x0a
     bd0:	f3 85       	ldd	r31, Z+11	; 0x0b
     bd2:	e0 2d       	mov	r30, r0
     bd4:	60 83       	st	Z, r22
     bd6:	1f c0       	rjmp	.+62     	; 0xc16 <ctcSetOcr+0xd6>
	}
	else if (channel_ == _DEF_CH_B)
     bd8:	42 30       	cpi	r20, 0x02	; 2
     bda:	e9 f4       	brne	.+58     	; 0xc16 <ctcSetOcr+0xd6>
	{
		*(p_ctc->h_tim16->Regs->OCRnBH) = (ocr_ >> 8) & 0xFF;
     bdc:	85 e1       	ldi	r24, 0x15	; 21
     bde:	82 9f       	mul	r24, r18
     be0:	f0 01       	movw	r30, r0
     be2:	83 9f       	mul	r24, r19
     be4:	f0 0d       	add	r31, r0
     be6:	11 24       	eor	r1, r1
     be8:	ea 50       	subi	r30, 0x0A	; 10
     bea:	fc 4f       	sbci	r31, 0xFC	; 252
     bec:	a7 85       	ldd	r26, Z+15	; 0x0f
     bee:	b0 89       	ldd	r27, Z+16	; 0x10
     bf0:	16 96       	adiw	r26, 0x06	; 6
     bf2:	0d 90       	ld	r0, X+
     bf4:	bc 91       	ld	r27, X
     bf6:	a0 2d       	mov	r26, r0
     bf8:	50 96       	adiw	r26, 0x10	; 16
     bfa:	0d 90       	ld	r0, X+
     bfc:	bc 91       	ld	r27, X
     bfe:	a0 2d       	mov	r26, r0
     c00:	7c 93       	st	X, r23
		*(p_ctc->h_tim16->Regs->OCRnBL) = (ocr_ & 0xFF);
     c02:	07 84       	ldd	r0, Z+15	; 0x0f
     c04:	f0 89       	ldd	r31, Z+16	; 0x10
     c06:	e0 2d       	mov	r30, r0
     c08:	06 80       	ldd	r0, Z+6	; 0x06
     c0a:	f7 81       	ldd	r31, Z+7	; 0x07
     c0c:	e0 2d       	mov	r30, r0
     c0e:	06 84       	ldd	r0, Z+14	; 0x0e
     c10:	f7 85       	ldd	r31, Z+15	; 0x0f
     c12:	e0 2d       	mov	r30, r0
     c14:	60 83       	st	Z, r22
	}
	
	return ret;
}
     c16:	81 e0       	ldi	r24, 0x01	; 1
     c18:	08 95       	ret

00000c1a <motorRun>:
	{
		return 3;
	}
#endif
	return 0;
}
     c1a:	cf 93       	push	r28
     c1c:	df 93       	push	r29
     c1e:	cf e9       	ldi	r28, 0x9F	; 159
     c20:	d1 e0       	ldi	r29, 0x01	; 1
     c22:	ea 81       	ldd	r30, Y+2	; 0x02
     c24:	fb 81       	ldd	r31, Y+3	; 0x03
     c26:	80 e0       	ldi	r24, 0x00	; 0
     c28:	09 95       	icall
     c2a:	ea 81       	ldd	r30, Y+2	; 0x02
     c2c:	fb 81       	ldd	r31, Y+3	; 0x03
     c2e:	81 e0       	ldi	r24, 0x01	; 1
     c30:	09 95       	icall
     c32:	df 91       	pop	r29
     c34:	cf 91       	pop	r28
     c36:	08 95       	ret

00000c38 <motorStop>:
     c38:	cf 93       	push	r28
     c3a:	df 93       	push	r29
     c3c:	cf e9       	ldi	r28, 0x9F	; 159
     c3e:	d1 e0       	ldi	r29, 0x01	; 1
     c40:	ec 81       	ldd	r30, Y+4	; 0x04
     c42:	fd 81       	ldd	r31, Y+5	; 0x05
     c44:	80 e0       	ldi	r24, 0x00	; 0
     c46:	09 95       	icall
     c48:	ec 81       	ldd	r30, Y+4	; 0x04
     c4a:	fd 81       	ldd	r31, Y+5	; 0x05
     c4c:	81 e0       	ldi	r24, 0x01	; 1
     c4e:	09 95       	icall
     c50:	df 91       	pop	r29
     c52:	cf 91       	pop	r28
     c54:	08 95       	ret

00000c56 <motorBreak>:
     c56:	cf 93       	push	r28
     c58:	df 93       	push	r29
     c5a:	cf e9       	ldi	r28, 0x9F	; 159
     c5c:	d1 e0       	ldi	r29, 0x01	; 1
     c5e:	ee 81       	ldd	r30, Y+6	; 0x06
     c60:	ff 81       	ldd	r31, Y+7	; 0x07
     c62:	80 e0       	ldi	r24, 0x00	; 0
     c64:	09 95       	icall
     c66:	ee 81       	ldd	r30, Y+6	; 0x06
     c68:	ff 81       	ldd	r31, Y+7	; 0x07
     c6a:	81 e0       	ldi	r24, 0x01	; 1
     c6c:	09 95       	icall
     c6e:	df 91       	pop	r29
     c70:	cf 91       	pop	r28
     c72:	08 95       	ret

00000c74 <motorSetSpeed>:
     c74:	1f 93       	push	r17
     c76:	cf 93       	push	r28
     c78:	df 93       	push	r29
     c7a:	18 2f       	mov	r17, r24
     c7c:	cf e9       	ldi	r28, 0x9F	; 159
     c7e:	d1 e0       	ldi	r29, 0x01	; 1
     c80:	e8 85       	ldd	r30, Y+8	; 0x08
     c82:	f9 85       	ldd	r31, Y+9	; 0x09
     c84:	68 2f       	mov	r22, r24
     c86:	80 e0       	ldi	r24, 0x00	; 0
     c88:	09 95       	icall
     c8a:	e8 85       	ldd	r30, Y+8	; 0x08
     c8c:	f9 85       	ldd	r31, Y+9	; 0x09
     c8e:	61 2f       	mov	r22, r17
     c90:	81 e0       	ldi	r24, 0x01	; 1
     c92:	09 95       	icall
     c94:	df 91       	pop	r29
     c96:	cf 91       	pop	r28
     c98:	1f 91       	pop	r17
     c9a:	08 95       	ret

00000c9c <motorSetLeftSpeed>:
     c9c:	e0 91 a7 01 	lds	r30, 0x01A7	; 0x8001a7 <motor+0x8>
     ca0:	f0 91 a8 01 	lds	r31, 0x01A8	; 0x8001a8 <motor+0x9>
     ca4:	68 2f       	mov	r22, r24
     ca6:	80 e0       	ldi	r24, 0x00	; 0
     ca8:	09 95       	icall
     caa:	08 95       	ret

00000cac <motorSetRightSpeed>:
     cac:	e0 91 a7 01 	lds	r30, 0x01A7	; 0x8001a7 <motor+0x8>
     cb0:	f0 91 a8 01 	lds	r31, 0x01A8	; 0x8001a8 <motor+0x9>
     cb4:	68 2f       	mov	r22, r24
     cb6:	81 e0       	ldi	r24, 0x01	; 1
     cb8:	09 95       	icall
     cba:	08 95       	ret

00000cbc <motorGetSpeed>:
     cbc:	0f 93       	push	r16
     cbe:	1f 93       	push	r17
     cc0:	cf 93       	push	r28
     cc2:	df 93       	push	r29
     cc4:	0f e9       	ldi	r16, 0x9F	; 159
     cc6:	11 e0       	ldi	r17, 0x01	; 1
     cc8:	d8 01       	movw	r26, r16
     cca:	1a 96       	adiw	r26, 0x0a	; 10
     ccc:	ed 91       	ld	r30, X+
     cce:	fc 91       	ld	r31, X
     cd0:	1b 97       	sbiw	r26, 0x0b	; 11
     cd2:	80 e0       	ldi	r24, 0x00	; 0
     cd4:	09 95       	icall
     cd6:	cc e9       	ldi	r28, 0x9C	; 156
     cd8:	d1 e0       	ldi	r29, 0x01	; 1
     cda:	88 83       	st	Y, r24
     cdc:	d8 01       	movw	r26, r16
     cde:	1a 96       	adiw	r26, 0x0a	; 10
     ce0:	ed 91       	ld	r30, X+
     ce2:	fc 91       	ld	r31, X
     ce4:	1b 97       	sbiw	r26, 0x0b	; 11
     ce6:	81 e0       	ldi	r24, 0x01	; 1
     ce8:	09 95       	icall
     cea:	89 83       	std	Y+1, r24	; 0x01
     cec:	ce 01       	movw	r24, r28
     cee:	df 91       	pop	r29
     cf0:	cf 91       	pop	r28
     cf2:	1f 91       	pop	r17
     cf4:	0f 91       	pop	r16
     cf6:	08 95       	ret

00000cf8 <motorSetLeftDirection>:
     cf8:	e0 91 ab 01 	lds	r30, 0x01AB	; 0x8001ab <motor+0xc>
     cfc:	f0 91 ac 01 	lds	r31, 0x01AC	; 0x8001ac <motor+0xd>
     d00:	68 2f       	mov	r22, r24
     d02:	80 e0       	ldi	r24, 0x00	; 0
     d04:	09 95       	icall
     d06:	08 95       	ret

00000d08 <motorSetRightDirection>:
     d08:	e0 91 ab 01 	lds	r30, 0x01AB	; 0x8001ab <motor+0xc>
     d0c:	f0 91 ac 01 	lds	r31, 0x01AC	; 0x8001ac <motor+0xd>
     d10:	68 2f       	mov	r22, r24
     d12:	81 e0       	ldi	r24, 0x01	; 1
     d14:	09 95       	icall
     d16:	08 95       	ret

00000d18 <motorSetMotionState>:
     d18:	cf 93       	push	r28
     d1a:	df 93       	push	r29
     d1c:	81 30       	cpi	r24, 0x01	; 1
     d1e:	99 f0       	breq	.+38     	; 0xd46 <motorSetMotionState+0x2e>
     d20:	28 f0       	brcs	.+10     	; 0xd2c <motorSetMotionState+0x14>
     d22:	82 30       	cpi	r24, 0x02	; 2
     d24:	e9 f0       	breq	.+58     	; 0xd60 <motorSetMotionState+0x48>
     d26:	83 30       	cpi	r24, 0x03	; 3
     d28:	41 f1       	breq	.+80     	; 0xd7a <motorSetMotionState+0x62>
     d2a:	33 c0       	rjmp	.+102    	; 0xd92 <motorSetMotionState+0x7a>
     d2c:	cf e9       	ldi	r28, 0x9F	; 159
     d2e:	d1 e0       	ldi	r29, 0x01	; 1
     d30:	ec 85       	ldd	r30, Y+12	; 0x0c
     d32:	fd 85       	ldd	r31, Y+13	; 0x0d
     d34:	61 e0       	ldi	r22, 0x01	; 1
     d36:	80 e0       	ldi	r24, 0x00	; 0
     d38:	09 95       	icall
     d3a:	ec 85       	ldd	r30, Y+12	; 0x0c
     d3c:	fd 85       	ldd	r31, Y+13	; 0x0d
     d3e:	60 e0       	ldi	r22, 0x00	; 0
     d40:	81 e0       	ldi	r24, 0x01	; 1
     d42:	09 95       	icall
     d44:	26 c0       	rjmp	.+76     	; 0xd92 <motorSetMotionState+0x7a>
     d46:	cf e9       	ldi	r28, 0x9F	; 159
     d48:	d1 e0       	ldi	r29, 0x01	; 1
     d4a:	ec 85       	ldd	r30, Y+12	; 0x0c
     d4c:	fd 85       	ldd	r31, Y+13	; 0x0d
     d4e:	60 e0       	ldi	r22, 0x00	; 0
     d50:	80 e0       	ldi	r24, 0x00	; 0
     d52:	09 95       	icall
     d54:	ec 85       	ldd	r30, Y+12	; 0x0c
     d56:	fd 85       	ldd	r31, Y+13	; 0x0d
     d58:	60 e0       	ldi	r22, 0x00	; 0
     d5a:	81 e0       	ldi	r24, 0x01	; 1
     d5c:	09 95       	icall
     d5e:	19 c0       	rjmp	.+50     	; 0xd92 <motorSetMotionState+0x7a>
     d60:	cf e9       	ldi	r28, 0x9F	; 159
     d62:	d1 e0       	ldi	r29, 0x01	; 1
     d64:	ec 85       	ldd	r30, Y+12	; 0x0c
     d66:	fd 85       	ldd	r31, Y+13	; 0x0d
     d68:	60 e0       	ldi	r22, 0x00	; 0
     d6a:	80 e0       	ldi	r24, 0x00	; 0
     d6c:	09 95       	icall
     d6e:	ec 85       	ldd	r30, Y+12	; 0x0c
     d70:	fd 85       	ldd	r31, Y+13	; 0x0d
     d72:	61 e0       	ldi	r22, 0x01	; 1
     d74:	81 e0       	ldi	r24, 0x01	; 1
     d76:	09 95       	icall
     d78:	0c c0       	rjmp	.+24     	; 0xd92 <motorSetMotionState+0x7a>
     d7a:	cf e9       	ldi	r28, 0x9F	; 159
     d7c:	d1 e0       	ldi	r29, 0x01	; 1
     d7e:	ec 85       	ldd	r30, Y+12	; 0x0c
     d80:	fd 85       	ldd	r31, Y+13	; 0x0d
     d82:	61 e0       	ldi	r22, 0x01	; 1
     d84:	80 e0       	ldi	r24, 0x00	; 0
     d86:	09 95       	icall
     d88:	ec 85       	ldd	r30, Y+12	; 0x0c
     d8a:	fd 85       	ldd	r31, Y+13	; 0x0d
     d8c:	61 e0       	ldi	r22, 0x01	; 1
     d8e:	81 e0       	ldi	r24, 0x01	; 1
     d90:	09 95       	icall
     d92:	df 91       	pop	r29
     d94:	cf 91       	pop	r28
     d96:	08 95       	ret

00000d98 <motorInit>:
     d98:	cf 93       	push	r28
     d9a:	df 93       	push	r29
     d9c:	80 e0       	ldi	r24, 0x00	; 0
     d9e:	ad d1       	rcall	.+858    	; 0x10fa <a4988Init>
     da0:	88 23       	and	r24, r24
     da2:	49 f0       	breq	.+18     	; 0xdb6 <motorInit+0x1e>
     da4:	81 e0       	ldi	r24, 0x01	; 1
     da6:	a9 d1       	rcall	.+850    	; 0x10fa <a4988Init>
     da8:	88 23       	and	r24, r24
     daa:	29 f0       	breq	.+10     	; 0xdb6 <motorInit+0x1e>
     dac:	8f e9       	ldi	r24, 0x9F	; 159
     dae:	91 e0       	ldi	r25, 0x01	; 1
     db0:	74 d2       	rcall	.+1256   	; 0x129a <a4988DriverInit>
     db2:	80 93 9e 01 	sts	0x019E, r24	; 0x80019e <is_init>
     db6:	cf e9       	ldi	r28, 0x9F	; 159
     db8:	d1 e0       	ldi	r29, 0x01	; 1
     dba:	e8 89       	ldd	r30, Y+16	; 0x10
     dbc:	f9 89       	ldd	r31, Y+17	; 0x11
     dbe:	60 e0       	ldi	r22, 0x00	; 0
     dc0:	70 e0       	ldi	r23, 0x00	; 0
     dc2:	80 e0       	ldi	r24, 0x00	; 0
     dc4:	09 95       	icall
     dc6:	e8 89       	ldd	r30, Y+16	; 0x10
     dc8:	f9 89       	ldd	r31, Y+17	; 0x11
     dca:	60 e0       	ldi	r22, 0x00	; 0
     dcc:	70 e0       	ldi	r23, 0x00	; 0
     dce:	81 e0       	ldi	r24, 0x01	; 1
     dd0:	09 95       	icall
     dd2:	80 e0       	ldi	r24, 0x00	; 0
     dd4:	a1 df       	rcall	.-190    	; 0xd18 <motorSetMotionState>
     dd6:	80 e0       	ldi	r24, 0x00	; 0
     dd8:	4d df       	rcall	.-358    	; 0xc74 <motorSetSpeed>
     dda:	3d df       	rcall	.-390    	; 0xc56 <motorBreak>
     ddc:	2d df       	rcall	.-422    	; 0xc38 <motorStop>
     dde:	81 e0       	ldi	r24, 0x01	; 1
     de0:	df 91       	pop	r29
     de2:	cf 91       	pop	r28
     de4:	08 95       	ret

00000de6 <motorAdvance>:

void motorAdvance(void)
{
#ifdef _USE_HW_A4988
	motorSetMotionState(0);
     de6:	80 e0       	ldi	r24, 0x00	; 0
     de8:	97 df       	rcall	.-210    	; 0xd18 <motorSetMotionState>
	motorRun();
     dea:	17 cf       	rjmp	.-466    	; 0xc1a <motorRun>
     dec:	08 95       	ret

00000dee <motorGoBackward>:
     dee:	82 e0       	ldi	r24, 0x02	; 2
}

void motorGoBackward(void)
{
#ifdef _USE_HW_A4988
	motorSetMotionState(2);
     df0:	93 df       	rcall	.-218    	; 0xd18 <motorSetMotionState>
	motorRun();
     df2:	13 cf       	rjmp	.-474    	; 0xc1a <motorRun>
     df4:	08 95       	ret

00000df6 <motorSpin>:
     df6:	88 23       	and	r24, r24
}

void motorSpin(bool spinwise_)
{
#ifdef _USE_HW_A4988
	if (spinwise_)
     df8:	19 f0       	breq	.+6      	; 0xe00 <motorSpin+0xa>
	{
		motorSetMotionState(3);
     dfa:	83 e0       	ldi	r24, 0x03	; 3
     dfc:	8d df       	rcall	.-230    	; 0xd18 <motorSetMotionState>
     dfe:	02 c0       	rjmp	.+4      	; 0xe04 <motorSpin+0xe>
	}
	else
	{
		motorSetMotionState(1);
     e00:	81 e0       	ldi	r24, 0x01	; 1
	}
	motorRun();
     e02:	8a df       	rcall	.-236    	; 0xd18 <motorSetMotionState>
     e04:	0a cf       	rjmp	.-492    	; 0xc1a <motorRun>
     e06:	08 95       	ret

00000e08 <motorSteering>:
	
#endif
}

void motorSteering(int8_t steering_degrees_)
{
     e08:	cf 92       	push	r12
     e0a:	df 92       	push	r13
     e0c:	ef 92       	push	r14
     e0e:	ff 92       	push	r15
     e10:	0f 93       	push	r16
     e12:	1f 93       	push	r17
     e14:	cf 93       	push	r28
     e16:	df 93       	push	r29
	const uint8_t power_max = 255;
	const uint8_t scale_limit = 20;
	uint8_t steering_bias_proportion = abs(steering_degrees_);
	uint8_t *power_proportion = NULL;
		
	if (steering_degrees_ < -100 || steering_degrees_ > 100)
     e18:	94 e6       	ldi	r25, 0x64	; 100
     e1a:	98 0f       	add	r25, r24
     e1c:	99 3c       	cpi	r25, 0xC9	; 201
     e1e:	08 f0       	brcs	.+2      	; 0xe22 <motorSteering+0x1a>
     e20:	2a c1       	rjmp	.+596    	; 0x1076 <motorSteering+0x26e>

void motorSteering(int8_t steering_degrees_)
{
	const uint8_t power_max = 255;
	const uint8_t scale_limit = 20;
	uint8_t steering_bias_proportion = abs(steering_degrees_);
     e22:	28 2f       	mov	r18, r24
     e24:	08 2e       	mov	r0, r24
     e26:	00 0c       	add	r0, r0
     e28:	33 0b       	sbc	r19, r19
     e2a:	33 23       	and	r19, r19
     e2c:	1c f4       	brge	.+6      	; 0xe34 <motorSteering+0x2c>
     e2e:	31 95       	neg	r19
     e30:	21 95       	neg	r18
     e32:	31 09       	sbc	r19, r1
     e34:	c8 2f       	mov	r28, r24
     e36:	d2 2f       	mov	r29, r18
	if (steering_degrees_ < -100 || steering_degrees_ > 100)
	{
		return;
	}
#ifdef _USE_HW_A4988
	power_proportion = motorGetSpeed();
     e38:	41 df       	rcall	.-382    	; 0xcbc <motorGetSpeed>
     e3a:	8c 01       	movw	r16, r24

	if (steering_degrees_ < 0)
     e3c:	cc 23       	and	r28, r28
     e3e:	0c f0       	brlt	.+2      	; 0xe42 <motorSteering+0x3a>
     e40:	68 c0       	rjmp	.+208    	; 0xf12 <motorSteering+0x10a>
	{
		if (power_proportion[0] >= power_proportion[1])
     e42:	dc 01       	movw	r26, r24
     e44:	8c 91       	ld	r24, X
     e46:	11 96       	adiw	r26, 0x01	; 1
     e48:	2c 91       	ld	r18, X
     e4a:	82 17       	cp	r24, r18
     e4c:	88 f1       	brcs	.+98     	; 0xeb0 <motorSteering+0xa8>
		{
			steering_bias_proportion = (uint8_t)((power_proportion[0] * steering_bias_proportion) / (100 + scale_limit));
			motor.setSpeed(_DEF_A4988_0, power_max - (uint8_t)((power_max * steering_bias_proportion) / (100 + scale_limit)));
     e4e:	d8 9f       	mul	r29, r24
     e50:	c0 01       	movw	r24, r0
     e52:	11 24       	eor	r1, r1
     e54:	0f 2e       	mov	r0, r31
     e56:	f8 e7       	ldi	r31, 0x78	; 120
     e58:	ef 2e       	mov	r14, r31
     e5a:	f1 2c       	mov	r15, r1
     e5c:	f0 2d       	mov	r31, r0
     e5e:	b7 01       	movw	r22, r14
     e60:	0e 94 5b 15 	call	0x2ab6	; 0x2ab6 <__divmodhi4>
     e64:	cf ef       	ldi	r28, 0xFF	; 255
     e66:	6c 9f       	mul	r22, r28
     e68:	c0 01       	movw	r24, r0
     e6a:	11 24       	eor	r1, r1
     e6c:	b7 01       	movw	r22, r14
     e6e:	0e 94 5b 15 	call	0x2ab6	; 0x2ab6 <__divmodhi4>
     e72:	60 95       	com	r22
     e74:	0f 2e       	mov	r0, r31
     e76:	ff e9       	ldi	r31, 0x9F	; 159
     e78:	cf 2e       	mov	r12, r31
     e7a:	f1 e0       	ldi	r31, 0x01	; 1
     e7c:	df 2e       	mov	r13, r31
     e7e:	f0 2d       	mov	r31, r0
     e80:	d6 01       	movw	r26, r12
     e82:	18 96       	adiw	r26, 0x08	; 8
     e84:	ed 91       	ld	r30, X+
     e86:	fc 91       	ld	r31, X
     e88:	19 97       	sbiw	r26, 0x09	; 9
     e8a:	80 e0       	ldi	r24, 0x00	; 0
     e8c:	09 95       	icall
			motor.setSpeed(_DEF_A4988_1, power_max - (uint8_t)((power_max * power_proportion[0]) / (100 + scale_limit)));
     e8e:	f8 01       	movw	r30, r16
     e90:	80 81       	ld	r24, Z
     e92:	c8 9f       	mul	r28, r24
     e94:	c0 01       	movw	r24, r0
     e96:	11 24       	eor	r1, r1
     e98:	b7 01       	movw	r22, r14
     e9a:	0e 94 5b 15 	call	0x2ab6	; 0x2ab6 <__divmodhi4>
     e9e:	60 95       	com	r22
     ea0:	d6 01       	movw	r26, r12
     ea2:	18 96       	adiw	r26, 0x08	; 8
     ea4:	ed 91       	ld	r30, X+
     ea6:	fc 91       	ld	r31, X
     ea8:	19 97       	sbiw	r26, 0x09	; 9
     eaa:	81 e0       	ldi	r24, 0x01	; 1
     eac:	09 95       	icall
     eae:	e2 c0       	rjmp	.+452    	; 0x1074 <motorSteering+0x26c>
		}
		else if (power_proportion[0] < power_proportion[1])
		{
			steering_bias_proportion = (uint8_t)((power_proportion[1] * steering_bias_proportion) / (100 + scale_limit));
			motor.setSpeed(_DEF_A4988_0, power_max - (uint8_t)((power_max * steering_bias_proportion) / (100 + scale_limit)));
     eb0:	d2 9f       	mul	r29, r18
     eb2:	c0 01       	movw	r24, r0
     eb4:	11 24       	eor	r1, r1
     eb6:	0f 2e       	mov	r0, r31
     eb8:	f8 e7       	ldi	r31, 0x78	; 120
     eba:	ef 2e       	mov	r14, r31
     ebc:	f1 2c       	mov	r15, r1
     ebe:	f0 2d       	mov	r31, r0
     ec0:	b7 01       	movw	r22, r14
     ec2:	0e 94 5b 15 	call	0x2ab6	; 0x2ab6 <__divmodhi4>
     ec6:	cf ef       	ldi	r28, 0xFF	; 255
     ec8:	6c 9f       	mul	r22, r28
     eca:	c0 01       	movw	r24, r0
     ecc:	11 24       	eor	r1, r1
     ece:	b7 01       	movw	r22, r14
     ed0:	0e 94 5b 15 	call	0x2ab6	; 0x2ab6 <__divmodhi4>
     ed4:	60 95       	com	r22
     ed6:	0f 2e       	mov	r0, r31
     ed8:	ff e9       	ldi	r31, 0x9F	; 159
     eda:	cf 2e       	mov	r12, r31
     edc:	f1 e0       	ldi	r31, 0x01	; 1
     ede:	df 2e       	mov	r13, r31
     ee0:	f0 2d       	mov	r31, r0
     ee2:	d6 01       	movw	r26, r12
     ee4:	18 96       	adiw	r26, 0x08	; 8
     ee6:	ed 91       	ld	r30, X+
     ee8:	fc 91       	ld	r31, X
     eea:	19 97       	sbiw	r26, 0x09	; 9
     eec:	80 e0       	ldi	r24, 0x00	; 0
     eee:	09 95       	icall
			motor.setSpeed(_DEF_A4988_1, power_max - (uint8_t)((power_max * power_proportion[1]) / (100 + scale_limit)));
     ef0:	f8 01       	movw	r30, r16
     ef2:	81 81       	ldd	r24, Z+1	; 0x01
     ef4:	c8 9f       	mul	r28, r24
     ef6:	c0 01       	movw	r24, r0
     ef8:	11 24       	eor	r1, r1
     efa:	b7 01       	movw	r22, r14
     efc:	0e 94 5b 15 	call	0x2ab6	; 0x2ab6 <__divmodhi4>
     f00:	60 95       	com	r22
     f02:	d6 01       	movw	r26, r12
     f04:	18 96       	adiw	r26, 0x08	; 8
     f06:	ed 91       	ld	r30, X+
     f08:	fc 91       	ld	r31, X
     f0a:	19 97       	sbiw	r26, 0x09	; 9
     f0c:	81 e0       	ldi	r24, 0x01	; 1
     f0e:	09 95       	icall
     f10:	b1 c0       	rjmp	.+354    	; 0x1074 <motorSteering+0x26c>
		}
	}
	else if (steering_degrees_ > 0)
     f12:	1c 16       	cp	r1, r28
     f14:	0c f0       	brlt	.+2      	; 0xf18 <motorSteering+0x110>
     f16:	6e c0       	rjmp	.+220    	; 0xff4 <motorSteering+0x1ec>
	{
		if (power_proportion[0] >= power_proportion[1])
     f18:	fc 01       	movw	r30, r24
     f1a:	80 81       	ld	r24, Z
     f1c:	01 81       	ldd	r16, Z+1	; 0x01
     f1e:	80 17       	cp	r24, r16
     f20:	a8 f1       	brcs	.+106    	; 0xf8c <motorSteering+0x184>
		{
			steering_bias_proportion = (uint8_t)((power_proportion[0] * steering_bias_proportion) / (100 + scale_limit));
     f22:	08 2f       	mov	r16, r24
     f24:	10 e0       	ldi	r17, 0x00	; 0
			motor.setSpeed(_DEF_A4988_0, power_max - (uint8_t)((power_max * power_proportion[0]) / (100 + scale_limit)));
     f26:	cf ef       	ldi	r28, 0xFF	; 255
     f28:	c0 9f       	mul	r28, r16
     f2a:	c0 01       	movw	r24, r0
     f2c:	c1 9f       	mul	r28, r17
     f2e:	90 0d       	add	r25, r0
     f30:	11 24       	eor	r1, r1
     f32:	0f 2e       	mov	r0, r31
     f34:	f8 e7       	ldi	r31, 0x78	; 120
     f36:	ef 2e       	mov	r14, r31
     f38:	f1 2c       	mov	r15, r1
     f3a:	f0 2d       	mov	r31, r0
     f3c:	b7 01       	movw	r22, r14
     f3e:	0e 94 5b 15 	call	0x2ab6	; 0x2ab6 <__divmodhi4>
     f42:	60 95       	com	r22
     f44:	0f 2e       	mov	r0, r31
     f46:	ff e9       	ldi	r31, 0x9F	; 159
     f48:	cf 2e       	mov	r12, r31
     f4a:	f1 e0       	ldi	r31, 0x01	; 1
     f4c:	df 2e       	mov	r13, r31
     f4e:	f0 2d       	mov	r31, r0
     f50:	d6 01       	movw	r26, r12
     f52:	18 96       	adiw	r26, 0x08	; 8
     f54:	ed 91       	ld	r30, X+
     f56:	fc 91       	ld	r31, X
     f58:	19 97       	sbiw	r26, 0x09	; 9
     f5a:	80 e0       	ldi	r24, 0x00	; 0
     f5c:	09 95       	icall
			motor.setSpeed(_DEF_A4988_1, power_max - (uint8_t)((power_max * steering_bias_proportion) / (100 + scale_limit)));
     f5e:	d0 9f       	mul	r29, r16
     f60:	c0 01       	movw	r24, r0
     f62:	d1 9f       	mul	r29, r17
     f64:	90 0d       	add	r25, r0
     f66:	11 24       	eor	r1, r1
     f68:	b7 01       	movw	r22, r14
     f6a:	0e 94 5b 15 	call	0x2ab6	; 0x2ab6 <__divmodhi4>
     f6e:	6c 9f       	mul	r22, r28
     f70:	c0 01       	movw	r24, r0
     f72:	11 24       	eor	r1, r1
     f74:	b7 01       	movw	r22, r14
     f76:	0e 94 5b 15 	call	0x2ab6	; 0x2ab6 <__divmodhi4>
     f7a:	60 95       	com	r22
     f7c:	d6 01       	movw	r26, r12
     f7e:	18 96       	adiw	r26, 0x08	; 8
     f80:	ed 91       	ld	r30, X+
     f82:	fc 91       	ld	r31, X
     f84:	19 97       	sbiw	r26, 0x09	; 9
     f86:	81 e0       	ldi	r24, 0x01	; 1
     f88:	09 95       	icall
     f8a:	74 c0       	rjmp	.+232    	; 0x1074 <motorSteering+0x26c>
		}
		else if (power_proportion[0] < power_proportion[1])
		{
			steering_bias_proportion = (uint8_t)((power_proportion[1] * steering_bias_proportion) / (100 + scale_limit));
     f8c:	10 e0       	ldi	r17, 0x00	; 0
			motor.setSpeed(_DEF_A4988_0, power_max - (uint8_t)((power_max *  power_proportion[1]) / (100 + scale_limit)));
     f8e:	cf ef       	ldi	r28, 0xFF	; 255
     f90:	c0 9f       	mul	r28, r16
     f92:	c0 01       	movw	r24, r0
     f94:	c1 9f       	mul	r28, r17
     f96:	90 0d       	add	r25, r0
     f98:	11 24       	eor	r1, r1
     f9a:	0f 2e       	mov	r0, r31
     f9c:	f8 e7       	ldi	r31, 0x78	; 120
     f9e:	ef 2e       	mov	r14, r31
     fa0:	f1 2c       	mov	r15, r1
     fa2:	f0 2d       	mov	r31, r0
     fa4:	b7 01       	movw	r22, r14
     fa6:	0e 94 5b 15 	call	0x2ab6	; 0x2ab6 <__divmodhi4>
     faa:	60 95       	com	r22
     fac:	0f 2e       	mov	r0, r31
     fae:	ff e9       	ldi	r31, 0x9F	; 159
     fb0:	cf 2e       	mov	r12, r31
     fb2:	f1 e0       	ldi	r31, 0x01	; 1
     fb4:	df 2e       	mov	r13, r31
     fb6:	f0 2d       	mov	r31, r0
     fb8:	d6 01       	movw	r26, r12
     fba:	18 96       	adiw	r26, 0x08	; 8
     fbc:	ed 91       	ld	r30, X+
     fbe:	fc 91       	ld	r31, X
     fc0:	19 97       	sbiw	r26, 0x09	; 9
     fc2:	80 e0       	ldi	r24, 0x00	; 0
     fc4:	09 95       	icall
			motor.setSpeed(_DEF_A4988_1, power_max - (uint8_t)((power_max *steering_bias_proportion) / (100 + scale_limit)));
     fc6:	d0 9f       	mul	r29, r16
     fc8:	c0 01       	movw	r24, r0
     fca:	d1 9f       	mul	r29, r17
     fcc:	90 0d       	add	r25, r0
     fce:	11 24       	eor	r1, r1
     fd0:	b7 01       	movw	r22, r14
     fd2:	0e 94 5b 15 	call	0x2ab6	; 0x2ab6 <__divmodhi4>
     fd6:	6c 9f       	mul	r22, r28
     fd8:	c0 01       	movw	r24, r0
     fda:	11 24       	eor	r1, r1
     fdc:	b7 01       	movw	r22, r14
     fde:	0e 94 5b 15 	call	0x2ab6	; 0x2ab6 <__divmodhi4>
     fe2:	60 95       	com	r22
     fe4:	d6 01       	movw	r26, r12
     fe6:	18 96       	adiw	r26, 0x08	; 8
     fe8:	ed 91       	ld	r30, X+
     fea:	fc 91       	ld	r31, X
     fec:	19 97       	sbiw	r26, 0x09	; 9
     fee:	81 e0       	ldi	r24, 0x01	; 1
     ff0:	09 95       	icall
     ff2:	40 c0       	rjmp	.+128    	; 0x1074 <motorSteering+0x26c>
		}
	}
	else if (steering_degrees_ == 0)
     ff4:	c1 11       	cpse	r28, r1
     ff6:	3e c0       	rjmp	.+124    	; 0x1074 <motorSteering+0x26c>
	{
		if (power_proportion[0] >= power_proportion[1])
     ff8:	fc 01       	movw	r30, r24
     ffa:	80 81       	ld	r24, Z
     ffc:	91 81       	ldd	r25, Z+1	; 0x01
     ffe:	89 17       	cp	r24, r25
    1000:	e8 f0       	brcs	.+58     	; 0x103c <motorSteering+0x234>
		{
			steering_bias_proportion = power_proportion[0];
			motor.setSpeed(_DEF_A4988_0, power_max - (uint8_t)((power_max * steering_bias_proportion) / (100 + scale_limit)));
    1002:	ff ef       	ldi	r31, 0xFF	; 255
    1004:	8f 9f       	mul	r24, r31
    1006:	c0 01       	movw	r24, r0
    1008:	11 24       	eor	r1, r1
    100a:	68 e7       	ldi	r22, 0x78	; 120
    100c:	70 e0       	ldi	r23, 0x00	; 0
    100e:	0e 94 5b 15 	call	0x2ab6	; 0x2ab6 <__divmodhi4>
    1012:	c6 2f       	mov	r28, r22
    1014:	c0 95       	com	r28
    1016:	0f e9       	ldi	r16, 0x9F	; 159
    1018:	11 e0       	ldi	r17, 0x01	; 1
    101a:	d8 01       	movw	r26, r16
    101c:	18 96       	adiw	r26, 0x08	; 8
    101e:	ed 91       	ld	r30, X+
    1020:	fc 91       	ld	r31, X
    1022:	19 97       	sbiw	r26, 0x09	; 9
    1024:	6c 2f       	mov	r22, r28
    1026:	80 e0       	ldi	r24, 0x00	; 0
    1028:	09 95       	icall
			motor.setSpeed(_DEF_A4988_1, power_max - (uint8_t)((power_max * steering_bias_proportion) / (100 + scale_limit)));
    102a:	d8 01       	movw	r26, r16
    102c:	18 96       	adiw	r26, 0x08	; 8
    102e:	ed 91       	ld	r30, X+
    1030:	fc 91       	ld	r31, X
    1032:	19 97       	sbiw	r26, 0x09	; 9
    1034:	6c 2f       	mov	r22, r28
    1036:	81 e0       	ldi	r24, 0x01	; 1
    1038:	09 95       	icall
    103a:	1c c0       	rjmp	.+56     	; 0x1074 <motorSteering+0x26c>
		}
		else if (power_proportion[0] < power_proportion[1])
		{
			steering_bias_proportion = power_proportion[1];
			motor.setSpeed(_DEF_A4988_0, power_max - (uint8_t)((power_max * steering_bias_proportion) / (100 + scale_limit)));
    103c:	bf ef       	ldi	r27, 0xFF	; 255
    103e:	9b 9f       	mul	r25, r27
    1040:	c0 01       	movw	r24, r0
    1042:	11 24       	eor	r1, r1
    1044:	68 e7       	ldi	r22, 0x78	; 120
    1046:	70 e0       	ldi	r23, 0x00	; 0
    1048:	0e 94 5b 15 	call	0x2ab6	; 0x2ab6 <__divmodhi4>
    104c:	c6 2f       	mov	r28, r22
    104e:	c0 95       	com	r28
    1050:	0f e9       	ldi	r16, 0x9F	; 159
    1052:	11 e0       	ldi	r17, 0x01	; 1
    1054:	d8 01       	movw	r26, r16
    1056:	18 96       	adiw	r26, 0x08	; 8
    1058:	ed 91       	ld	r30, X+
    105a:	fc 91       	ld	r31, X
    105c:	19 97       	sbiw	r26, 0x09	; 9
    105e:	6c 2f       	mov	r22, r28
    1060:	80 e0       	ldi	r24, 0x00	; 0
    1062:	09 95       	icall
			motor.setSpeed(_DEF_A4988_1, power_max - (uint8_t)((power_max * steering_bias_proportion) / (100 + scale_limit)));
    1064:	d8 01       	movw	r26, r16
    1066:	18 96       	adiw	r26, 0x08	; 8
    1068:	ed 91       	ld	r30, X+
    106a:	fc 91       	ld	r31, X
    106c:	19 97       	sbiw	r26, 0x09	; 9
    106e:	6c 2f       	mov	r22, r28
    1070:	81 e0       	ldi	r24, 0x01	; 1
		}
	}
	motorRun();
    1072:	09 95       	icall
    1074:	d2 dd       	rcall	.-1116   	; 0xc1a <motorRun>
#endif
}
    1076:	df 91       	pop	r29
    1078:	cf 91       	pop	r28
    107a:	1f 91       	pop	r17
    107c:	0f 91       	pop	r16
    107e:	ff 90       	pop	r15
    1080:	ef 90       	pop	r14
    1082:	df 90       	pop	r13
    1084:	cf 90       	pop	r12
    1086:	08 95       	ret

00001088 <a4988GetDirection>:

bool a4988GetDirection(uint8_t ch_)
{
	bool ret;
	
	a4988_t *p_a4988 = &a4988_tbl[ch_];
    1088:	90 e0       	ldi	r25, 0x00	; 0
		break;
		default:
		break;
	}
	*/
	if (p_a4988->h_a4988->direction)
    108a:	fc 01       	movw	r30, r24
    108c:	ee 0f       	add	r30, r30
    108e:	ff 1f       	adc	r31, r31
    1090:	ee 0f       	add	r30, r30
    1092:	ff 1f       	adc	r31, r31
    1094:	e8 0f       	add	r30, r24
    1096:	f9 1f       	adc	r31, r25
    1098:	e5 59       	subi	r30, 0x95	; 149
    109a:	fb 4f       	sbci	r31, 0xFB	; 251
    109c:	03 80       	ldd	r0, Z+3	; 0x03
    109e:	f4 81       	ldd	r31, Z+4	; 0x04
    10a0:	e0 2d       	mov	r30, r0
    10a2:	24 81       	ldd	r18, Z+4	; 0x04
    10a4:	22 23       	and	r18, r18
    10a6:	61 f0       	breq	.+24     	; 0x10c0 <a4988GetDirection+0x38>
	{
		ret = p_a4988->normal_rotate;
    10a8:	fc 01       	movw	r30, r24
    10aa:	ee 0f       	add	r30, r30
    10ac:	ff 1f       	adc	r31, r31
    10ae:	ee 0f       	add	r30, r30
    10b0:	ff 1f       	adc	r31, r31
    10b2:	8e 0f       	add	r24, r30
    10b4:	9f 1f       	adc	r25, r31
    10b6:	fc 01       	movw	r30, r24
    10b8:	e5 59       	subi	r30, 0x95	; 149
    10ba:	fb 4f       	sbci	r31, 0xFB	; 251
    10bc:	81 81       	ldd	r24, Z+1	; 0x01
    10be:	08 95       	ret
	}
	else
	{
		ret = p_a4988->reverse_rotate;
    10c0:	fc 01       	movw	r30, r24
    10c2:	ee 0f       	add	r30, r30
    10c4:	ff 1f       	adc	r31, r31
    10c6:	ee 0f       	add	r30, r30
    10c8:	ff 1f       	adc	r31, r31
    10ca:	8e 0f       	add	r24, r30
    10cc:	9f 1f       	adc	r25, r31
    10ce:	fc 01       	movw	r30, r24
    10d0:	e5 59       	subi	r30, 0x95	; 149
    10d2:	fb 4f       	sbci	r31, 0xFB	; 251
    10d4:	82 81       	ldd	r24, Z+2	; 0x02
	}
	return ret;
}
    10d6:	08 95       	ret

000010d8 <a4988GetSpeed>:
uint8_t a4988GetSpeed(uint8_t ch_)
{
	uint8_t ret = 0;
	
	a4988_t *p_a4988 = &a4988_tbl[ch_];
	ret = p_a4988->h_a4988->speed;
    10d8:	90 e0       	ldi	r25, 0x00	; 0
    10da:	fc 01       	movw	r30, r24
    10dc:	ee 0f       	add	r30, r30
    10de:	ff 1f       	adc	r31, r31
    10e0:	ee 0f       	add	r30, r30
    10e2:	ff 1f       	adc	r31, r31
    10e4:	8e 0f       	add	r24, r30
    10e6:	9f 1f       	adc	r25, r31
    10e8:	fc 01       	movw	r30, r24
    10ea:	e5 59       	subi	r30, 0x95	; 149
    10ec:	fb 4f       	sbci	r31, 0xFB	; 251
    10ee:	03 80       	ldd	r0, Z+3	; 0x03
    10f0:	f4 81       	ldd	r31, Z+4	; 0x04
    10f2:	e0 2d       	mov	r30, r0
	return ret;
}
    10f4:	85 81       	ldd	r24, Z+5	; 0x05
    10f6:	08 95       	ret

000010f8 <a4988SetCallBack>:

void a4988SetCallBack(uint8_t ch_, void (*p_func)(void))
{
    10f8:	08 95       	ret

000010fa <a4988Init>:

bool a4988Enable(void);
bool a4988Disable(void);

bool a4988Init(uint8_t ch_)
{
    10fa:	cf 93       	push	r28
    10fc:	df 93       	push	r29
	bool ret = false;
	
	
	a4988_t *p_a4988 = &a4988_tbl[ch_];
    10fe:	c8 2f       	mov	r28, r24
    1100:	d0 e0       	ldi	r29, 0x00	; 0

	switch(ch_)
    1102:	88 23       	and	r24, r24
    1104:	19 f0       	breq	.+6      	; 0x110c <__stack+0xd>
    1106:	81 30       	cpi	r24, 0x01	; 1
    1108:	e9 f0       	breq	.+58     	; 0x1144 <__stack+0x45>
    110a:	38 c0       	rjmp	.+112    	; 0x117c <__stack+0x7d>
	{
		case _DEF_A4988_0:
		p_a4988->h_a4988				= &h_a4988_1;
    110c:	de 01       	movw	r26, r28
    110e:	aa 0f       	add	r26, r26
    1110:	bb 1f       	adc	r27, r27
    1112:	aa 0f       	add	r26, r26
    1114:	bb 1f       	adc	r27, r27
    1116:	ac 0f       	add	r26, r28
    1118:	bd 1f       	adc	r27, r29
    111a:	a5 59       	subi	r26, 0x95	; 149
    111c:	bb 4f       	sbci	r27, 0xFB	; 251
    111e:	ef e5       	ldi	r30, 0x5F	; 95
    1120:	f4 e0       	ldi	r31, 0x04	; 4
    1122:	14 96       	adiw	r26, 0x04	; 4
    1124:	fc 93       	st	X, r31
    1126:	ee 93       	st	-X, r30
    1128:	13 97       	sbiw	r26, 0x03	; 3
		
		p_a4988->normal_rotate			= _DEF_CW;
    112a:	11 96       	adiw	r26, 0x01	; 1
    112c:	1c 92       	st	X, r1
    112e:	11 97       	sbiw	r26, 0x01	; 1
		p_a4988->reverse_rotate			= _DEF_CCW;
    1130:	81 e0       	ldi	r24, 0x01	; 1
    1132:	12 96       	adiw	r26, 0x02	; 2
    1134:	8c 93       	st	X, r24
		p_a4988->h_a4988->Init.ch		= _DEF_A4988_0;
    1136:	10 82       	st	Z, r1
		p_a4988->h_a4988->Init.timer	= TIM0;
    1138:	11 82       	std	Z+1, r1	; 0x01
		p_a4988->h_a4988->Init.phase	= A4988_FULL_STEP;
    113a:	12 82       	std	Z+2, r1	; 0x02
		p_a4988->h_a4988->enable		= false;
    113c:	13 82       	std	Z+3, r1	; 0x03
		p_a4988->h_a4988->direction		= _REVERSE_ROTATION;
    113e:	14 82       	std	Z+4, r1	; 0x04
		p_a4988->h_a4988->speed			= 0;
    1140:	15 82       	std	Z+5, r1	; 0x05
		
		break;
    1142:	1c c0       	rjmp	.+56     	; 0x117c <__stack+0x7d>
		case _DEF_A4988_1:
		p_a4988->h_a4988				= &h_a4988_2;
    1144:	de 01       	movw	r26, r28
    1146:	aa 0f       	add	r26, r26
    1148:	bb 1f       	adc	r27, r27
    114a:	aa 0f       	add	r26, r26
    114c:	bb 1f       	adc	r27, r27
    114e:	ac 0f       	add	r26, r28
    1150:	bd 1f       	adc	r27, r29
    1152:	a5 59       	subi	r26, 0x95	; 149
    1154:	bb 4f       	sbci	r27, 0xFB	; 251
    1156:	e5 e6       	ldi	r30, 0x65	; 101
    1158:	f4 e0       	ldi	r31, 0x04	; 4
    115a:	14 96       	adiw	r26, 0x04	; 4
    115c:	fc 93       	st	X, r31
    115e:	ee 93       	st	-X, r30
    1160:	13 97       	sbiw	r26, 0x03	; 3
		
		p_a4988->normal_rotate			= _DEF_CCW;
    1162:	81 e0       	ldi	r24, 0x01	; 1
    1164:	11 96       	adiw	r26, 0x01	; 1
    1166:	8c 93       	st	X, r24
    1168:	11 97       	sbiw	r26, 0x01	; 1
		p_a4988->reverse_rotate			= _DEF_CW;
    116a:	12 96       	adiw	r26, 0x02	; 2
    116c:	1c 92       	st	X, r1
		p_a4988->h_a4988->Init.ch		= _DEF_A4988_1;
    116e:	80 83       	st	Z, r24
		p_a4988->h_a4988->Init.timer	= TIM2;
    1170:	92 e0       	ldi	r25, 0x02	; 2
    1172:	91 83       	std	Z+1, r25	; 0x01
		p_a4988->h_a4988->Init.phase	= A4988_FULL_STEP;
    1174:	12 82       	std	Z+2, r1	; 0x02
		p_a4988->h_a4988->enable		= false;
    1176:	13 82       	std	Z+3, r1	; 0x03
		p_a4988->h_a4988->direction		= _NORMAL_ROTATION;
    1178:	84 83       	std	Z+4, r24	; 0x04
		p_a4988->h_a4988->speed			= 0;
    117a:	15 82       	std	Z+5, r1	; 0x05
		default:
		break;
	}
	
	
	if (ctcBegin(p_a4988->h_a4988->Init.timer) != true)
    117c:	fe 01       	movw	r30, r28
    117e:	ee 0f       	add	r30, r30
    1180:	ff 1f       	adc	r31, r31
    1182:	ee 0f       	add	r30, r30
    1184:	ff 1f       	adc	r31, r31
    1186:	ec 0f       	add	r30, r28
    1188:	fd 1f       	adc	r31, r29
    118a:	e5 59       	subi	r30, 0x95	; 149
    118c:	fb 4f       	sbci	r31, 0xFB	; 251
    118e:	03 80       	ldd	r0, Z+3	; 0x03
    1190:	f4 81       	ldd	r31, Z+4	; 0x04
    1192:	e0 2d       	mov	r30, r0
    1194:	81 81       	ldd	r24, Z+1	; 0x01
    1196:	c2 da       	rcall	.-2684   	; 0x71c <ctcBegin>
    1198:	88 23       	and	r24, r24
    119a:	61 f0       	breq	.+24     	; 0x11b4 <__stack+0xb5>
	{
		ret = false;
	}
	else
	{
		p_a4988->is_open = true;
    119c:	ce 01       	movw	r24, r28
    119e:	88 0f       	add	r24, r24
    11a0:	99 1f       	adc	r25, r25
    11a2:	88 0f       	add	r24, r24
    11a4:	99 1f       	adc	r25, r25
    11a6:	c8 0f       	add	r28, r24
    11a8:	d9 1f       	adc	r29, r25
    11aa:	c5 59       	subi	r28, 0x95	; 149
    11ac:	db 4f       	sbci	r29, 0xFB	; 251
    11ae:	81 e0       	ldi	r24, 0x01	; 1
    11b0:	88 83       	st	Y, r24
    11b2:	01 c0       	rjmp	.+2      	; 0x11b6 <__stack+0xb7>
	}
	
	
	if (ctcBegin(p_a4988->h_a4988->Init.timer) != true)
	{
		ret = false;
    11b4:	80 e0       	ldi	r24, 0x00	; 0
		p_a4988->is_open = true;
		ret = true;
	}
	
	return ret;
}
    11b6:	df 91       	pop	r29
    11b8:	cf 91       	pop	r28
    11ba:	08 95       	ret

000011bc <a4988SetDirection>:
}

bool a4988SetDirection(uint8_t ch_, bool dir_)
{
	bool ret = true;
	a4988_t *p_a4988 = &a4988_tbl[ch_];
    11bc:	28 2f       	mov	r18, r24
    11be:	30 e0       	ldi	r19, 0x00	; 0
	uint8_t side = 0;
	p_a4988->h_a4988->direction = dir_;
    11c0:	f9 01       	movw	r30, r18
    11c2:	ee 0f       	add	r30, r30
    11c4:	ff 1f       	adc	r31, r31
    11c6:	ee 0f       	add	r30, r30
    11c8:	ff 1f       	adc	r31, r31
    11ca:	e2 0f       	add	r30, r18
    11cc:	f3 1f       	adc	r31, r19
    11ce:	e5 59       	subi	r30, 0x95	; 149
    11d0:	fb 4f       	sbci	r31, 0xFB	; 251
    11d2:	03 80       	ldd	r0, Z+3	; 0x03
    11d4:	f4 81       	ldd	r31, Z+4	; 0x04
    11d6:	e0 2d       	mov	r30, r0
    11d8:	64 83       	std	Z+4, r22	; 0x04
	
	switch(ch_)
    11da:	88 23       	and	r24, r24
    11dc:	19 f0       	breq	.+6      	; 0x11e4 <a4988SetDirection+0x28>
    11de:	81 30       	cpi	r24, 0x01	; 1
    11e0:	19 f0       	breq	.+6      	; 0x11e8 <a4988SetDirection+0x2c>
    11e2:	04 c0       	rjmp	.+8      	; 0x11ec <a4988SetDirection+0x30>
	{
		case _DEF_A4988_0:
		side = _PIN_GPIO_A4988_LDIR;
    11e4:	81 e0       	ldi	r24, 0x01	; 1
    11e6:	03 c0       	rjmp	.+6      	; 0x11ee <a4988SetDirection+0x32>
		break;
		case _DEF_A4988_1:
		side = _PIN_GPIO_A4988_RDIR;
    11e8:	82 e0       	ldi	r24, 0x02	; 2
		break;
    11ea:	01 c0       	rjmp	.+2      	; 0x11ee <a4988SetDirection+0x32>

bool a4988SetDirection(uint8_t ch_, bool dir_)
{
	bool ret = true;
	a4988_t *p_a4988 = &a4988_tbl[ch_];
	uint8_t side = 0;
    11ec:	80 e0       	ldi	r24, 0x00	; 0
		break;
		default:
		break;
	}
	
	if (p_a4988->h_a4988->direction)
    11ee:	f9 01       	movw	r30, r18
    11f0:	ee 0f       	add	r30, r30
    11f2:	ff 1f       	adc	r31, r31
    11f4:	ee 0f       	add	r30, r30
    11f6:	ff 1f       	adc	r31, r31
    11f8:	e2 0f       	add	r30, r18
    11fa:	f3 1f       	adc	r31, r19
    11fc:	e5 59       	subi	r30, 0x95	; 149
    11fe:	fb 4f       	sbci	r31, 0xFB	; 251
    1200:	03 80       	ldd	r0, Z+3	; 0x03
    1202:	f4 81       	ldd	r31, Z+4	; 0x04
    1204:	e0 2d       	mov	r30, r0
    1206:	94 81       	ldd	r25, Z+4	; 0x04
    1208:	99 23       	and	r25, r25
    120a:	69 f0       	breq	.+26     	; 0x1226 <a4988SetDirection+0x6a>
	{
		gpioPinWrite(side, p_a4988->normal_rotate);
    120c:	f9 01       	movw	r30, r18
    120e:	ee 0f       	add	r30, r30
    1210:	ff 1f       	adc	r31, r31
    1212:	ee 0f       	add	r30, r30
    1214:	ff 1f       	adc	r31, r31
    1216:	2e 0f       	add	r18, r30
    1218:	3f 1f       	adc	r19, r31
    121a:	f9 01       	movw	r30, r18
    121c:	e5 59       	subi	r30, 0x95	; 149
    121e:	fb 4f       	sbci	r31, 0xFB	; 251
    1220:	61 81       	ldd	r22, Z+1	; 0x01
    1222:	d5 d0       	rcall	.+426    	; 0x13ce <gpioPinWrite>
    1224:	0c c0       	rjmp	.+24     	; 0x123e <a4988SetDirection+0x82>
	}
	else
	{
		gpioPinWrite(side, p_a4988->reverse_rotate);
    1226:	f9 01       	movw	r30, r18
    1228:	ee 0f       	add	r30, r30
    122a:	ff 1f       	adc	r31, r31
    122c:	ee 0f       	add	r30, r30
    122e:	ff 1f       	adc	r31, r31
    1230:	2e 0f       	add	r18, r30
    1232:	3f 1f       	adc	r19, r31
    1234:	f9 01       	movw	r30, r18
    1236:	e5 59       	subi	r30, 0x95	; 149
    1238:	fb 4f       	sbci	r31, 0xFB	; 251
    123a:	62 81       	ldd	r22, Z+2	; 0x02
    123c:	c8 d0       	rcall	.+400    	; 0x13ce <gpioPinWrite>
	}
	return ret;
}
    123e:	81 e0       	ldi	r24, 0x01	; 1
    1240:	08 95       	ret

00001242 <a4988SetSpeed>:
	}
	return ret;
}

bool a4988SetSpeed(uint8_t ch_, uint8_t speed_)
{
    1242:	cf 93       	push	r28
    1244:	df 93       	push	r29
	bool ret = false;

	a4988_t *p_a4988 = &a4988_tbl[ch_];
    1246:	90 e0       	ldi	r25, 0x00	; 0
	
	p_a4988->h_a4988->speed = speed_;
    1248:	ec 01       	movw	r28, r24
    124a:	cc 0f       	add	r28, r28
    124c:	dd 1f       	adc	r29, r29
    124e:	cc 0f       	add	r28, r28
    1250:	dd 1f       	adc	r29, r29
    1252:	8c 0f       	add	r24, r28
    1254:	9d 1f       	adc	r25, r29
    1256:	ec 01       	movw	r28, r24
    1258:	c5 59       	subi	r28, 0x95	; 149
    125a:	db 4f       	sbci	r29, 0xFB	; 251
    125c:	eb 81       	ldd	r30, Y+3	; 0x03
    125e:	fc 81       	ldd	r31, Y+4	; 0x04
    1260:	65 83       	std	Z+5, r22	; 0x05
	
	ctcSetTcnt(p_a4988->h_a4988->Init.timer, 0);
    1262:	eb 81       	ldd	r30, Y+3	; 0x03
    1264:	fc 81       	ldd	r31, Y+4	; 0x04
    1266:	60 e0       	ldi	r22, 0x00	; 0
    1268:	70 e0       	ldi	r23, 0x00	; 0
    126a:	81 81       	ldd	r24, Z+1	; 0x01
    126c:	fb db       	rcall	.-2058   	; 0xa64 <ctcSetTcnt>
	if (p_a4988->h_a4988->Init.timer == TIM0 || p_a4988->h_a4988->Init.timer == TIM2)
    126e:	eb 81       	ldd	r30, Y+3	; 0x03
    1270:	fc 81       	ldd	r31, Y+4	; 0x04
    1272:	81 81       	ldd	r24, Z+1	; 0x01
    1274:	98 2f       	mov	r25, r24
    1276:	9d 7f       	andi	r25, 0xFD	; 253
    1278:	29 f4       	brne	.+10     	; 0x1284 <a4988SetSpeed+0x42>
	{
		ret = ctcSetOcr(p_a4988->h_a4988->Init.timer, p_a4988->h_a4988->speed, _DEF_CH_NONE);	
    127a:	65 81       	ldd	r22, Z+5	; 0x05
    127c:	70 e0       	ldi	r23, 0x00	; 0
    127e:	40 e0       	ldi	r20, 0x00	; 0
    1280:	5f dc       	rcall	.-1858   	; 0xb40 <ctcSetOcr>
    1282:	08 c0       	rjmp	.+16     	; 0x1294 <a4988SetSpeed+0x52>
	}
	else if (p_a4988->h_a4988->Init.timer == TIM1 || p_a4988->h_a4988->Init.timer == TIM3)
    1284:	91 30       	cpi	r25, 0x01	; 1
    1286:	29 f4       	brne	.+10     	; 0x1292 <a4988SetSpeed+0x50>
	{
		ret = ctcSetOcr(p_a4988->h_a4988->Init.timer, p_a4988->h_a4988->speed, _DEF_CH_A);	
    1288:	65 81       	ldd	r22, Z+5	; 0x05
    128a:	70 e0       	ldi	r23, 0x00	; 0
    128c:	41 e0       	ldi	r20, 0x01	; 1
    128e:	58 dc       	rcall	.-1872   	; 0xb40 <ctcSetOcr>
    1290:	01 c0       	rjmp	.+2      	; 0x1294 <a4988SetSpeed+0x52>
	return ret;
}

bool a4988SetSpeed(uint8_t ch_, uint8_t speed_)
{
	bool ret = false;
    1292:	80 e0       	ldi	r24, 0x00	; 0
	else if (p_a4988->h_a4988->Init.timer == TIM1 || p_a4988->h_a4988->Init.timer == TIM3)
	{
		ret = ctcSetOcr(p_a4988->h_a4988->Init.timer, p_a4988->h_a4988->speed, _DEF_CH_A);	
	}
	return ret;
}
    1294:	df 91       	pop	r29
    1296:	cf 91       	pop	r28
    1298:	08 95       	ret

0000129a <a4988DriverInit>:
	return ret;
}


bool a4988DriverInit(drivemotor_driver_t *p_driver)
{
    129a:	fc 01       	movw	r30, r24
	p_driver->init			= a4988Init;
    129c:	8d e7       	ldi	r24, 0x7D	; 125
    129e:	98 e0       	ldi	r25, 0x08	; 8
    12a0:	91 83       	std	Z+1, r25	; 0x01
    12a2:	80 83       	st	Z, r24
	p_driver->startMotor	= a4988Start;
    12a4:	89 e7       	ldi	r24, 0x79	; 121
    12a6:	99 e0       	ldi	r25, 0x09	; 9
    12a8:	93 83       	std	Z+3, r25	; 0x03
    12aa:	82 83       	std	Z+2, r24	; 0x02
	p_driver->stopMotor		= a4988Stop;
    12ac:	84 e9       	ldi	r24, 0x94	; 148
    12ae:	99 e0       	ldi	r25, 0x09	; 9
    12b0:	95 83       	std	Z+5, r25	; 0x05
    12b2:	84 83       	std	Z+4, r24	; 0x04
	p_driver->breakMotor	= a4988Hold;
    12b4:	8a ea       	ldi	r24, 0xAA	; 170
    12b6:	99 e0       	ldi	r25, 0x09	; 9
    12b8:	97 83       	std	Z+7, r25	; 0x07
    12ba:	86 83       	std	Z+6, r24	; 0x06
	p_driver->setSpeed		= a4988SetSpeed;
    12bc:	81 e2       	ldi	r24, 0x21	; 33
    12be:	99 e0       	ldi	r25, 0x09	; 9
    12c0:	91 87       	std	Z+9, r25	; 0x09
    12c2:	80 87       	std	Z+8, r24	; 0x08
	p_driver->getSpeed		= a4988GetSpeed;
    12c4:	8c e6       	ldi	r24, 0x6C	; 108
    12c6:	98 e0       	ldi	r25, 0x08	; 8
    12c8:	93 87       	std	Z+11, r25	; 0x0b
    12ca:	82 87       	std	Z+10, r24	; 0x0a
	p_driver->setDirection	= a4988SetDirection;
    12cc:	8e ed       	ldi	r24, 0xDE	; 222
    12ce:	98 e0       	ldi	r25, 0x08	; 8
    12d0:	95 87       	std	Z+13, r25	; 0x0d
    12d2:	84 87       	std	Z+12, r24	; 0x0c
	p_driver->getDirection	= a4988GetDirection;
    12d4:	84 e4       	ldi	r24, 0x44	; 68
    12d6:	98 e0       	ldi	r25, 0x08	; 8
    12d8:	97 87       	std	Z+15, r25	; 0x0f
    12da:	86 87       	std	Z+14, r24	; 0x0e
	p_driver->setCallBack	= a4988SetCallBack;
    12dc:	8c e7       	ldi	r24, 0x7C	; 124
    12de:	98 e0       	ldi	r25, 0x08	; 8
    12e0:	91 8b       	std	Z+17, r25	; 0x11
    12e2:	80 8b       	std	Z+16, r24	; 0x10
	return true;
}
    12e4:	81 e0       	ldi	r24, 0x01	; 1
    12e6:	08 95       	ret

000012e8 <a4988Enable>:
}

bool a4988Enable(void)
{
	bool ret = true;
	gpioPinWrite(_PIN_GPIO_A4988_EN, true);
    12e8:	61 e0       	ldi	r22, 0x01	; 1
    12ea:	80 e0       	ldi	r24, 0x00	; 0
    12ec:	70 d0       	rcall	.+224    	; 0x13ce <gpioPinWrite>
	return ret;
}
    12ee:	81 e0       	ldi	r24, 0x01	; 1
    12f0:	08 95       	ret

000012f2 <a4988Start>:
	p_driver->setCallBack	= a4988SetCallBack;
	return true;
}

bool a4988Start(uint8_t ch_)
{
    12f2:	cf 93       	push	r28
	bool ret = false;
	a4988_t *p_a4988 = &a4988_tbl[ch_];
	
	if (ctcStart(p_a4988->h_a4988->Init.timer) != true)
    12f4:	90 e0       	ldi	r25, 0x00	; 0
    12f6:	fc 01       	movw	r30, r24
    12f8:	ee 0f       	add	r30, r30
    12fa:	ff 1f       	adc	r31, r31
    12fc:	ee 0f       	add	r30, r30
    12fe:	ff 1f       	adc	r31, r31
    1300:	8e 0f       	add	r24, r30
    1302:	9f 1f       	adc	r25, r31
    1304:	fc 01       	movw	r30, r24
    1306:	e5 59       	subi	r30, 0x95	; 149
    1308:	fb 4f       	sbci	r31, 0xFB	; 251
    130a:	03 80       	ldd	r0, Z+3	; 0x03
    130c:	f4 81       	ldd	r31, Z+4	; 0x04
    130e:	e0 2d       	mov	r30, r0
    1310:	81 81       	ldd	r24, Z+1	; 0x01
    1312:	06 db       	rcall	.-2548   	; 0x920 <ctcStart>
    1314:	c8 2f       	mov	r28, r24
	}
	else
	{
		ret = true;
	}
	a4988Enable();
    1316:	e8 df       	rcall	.-48     	; 0x12e8 <a4988Enable>
    1318:	8c 2f       	mov	r24, r28
	
	return ret;
}
    131a:	cf 91       	pop	r28
    131c:	08 95       	ret

0000131e <a4988Disable>:
    131e:	60 e0       	ldi	r22, 0x00	; 0
}

bool a4988Disable()
{
	bool ret = true;
	gpioPinWrite(_PIN_GPIO_A4988_EN, false);
    1320:	80 e0       	ldi	r24, 0x00	; 0
    1322:	55 d0       	rcall	.+170    	; 0x13ce <gpioPinWrite>
	return ret;
}
    1324:	81 e0       	ldi	r24, 0x01	; 1
    1326:	08 95       	ret

00001328 <a4988Stop>:
	return ret;
}


bool a4988Stop(uint8_t ch_)
{
    1328:	cf 93       	push	r28
	bool ret = false;
	a4988_t *p_a4988 = &a4988_tbl[ch_];
	
	if (ctcStop(p_a4988->h_a4988->Init.timer) != true)
    132a:	90 e0       	ldi	r25, 0x00	; 0
    132c:	fc 01       	movw	r30, r24
    132e:	ee 0f       	add	r30, r30
    1330:	ff 1f       	adc	r31, r31
    1332:	ee 0f       	add	r30, r30
    1334:	ff 1f       	adc	r31, r31
    1336:	8e 0f       	add	r24, r30
    1338:	9f 1f       	adc	r25, r31
    133a:	fc 01       	movw	r30, r24
    133c:	e5 59       	subi	r30, 0x95	; 149
    133e:	fb 4f       	sbci	r31, 0xFB	; 251
    1340:	03 80       	ldd	r0, Z+3	; 0x03
    1342:	f4 81       	ldd	r31, Z+4	; 0x04
    1344:	e0 2d       	mov	r30, r0
    1346:	81 81       	ldd	r24, Z+1	; 0x01
    1348:	3c db       	rcall	.-2440   	; 0x9c2 <ctcStop>
    134a:	c8 2f       	mov	r28, r24
	}
	else
	{
		ret = true;
	}
	a4988Disable();
    134c:	e8 df       	rcall	.-48     	; 0x131e <a4988Disable>
    134e:	8c 2f       	mov	r24, r28
	return ret;
}
    1350:	cf 91       	pop	r28
    1352:	08 95       	ret

00001354 <a4988Hold>:
    1354:	e9 df       	rcall	.-46     	; 0x1328 <a4988Stop>

bool a4988Hold(uint8_t ch_)
{
	bool ret = a4988Stop(ch_);
	ret = a4988Enable();
    1356:	c8 cf       	rjmp	.-112    	; 0x12e8 <a4988Enable>
    1358:	08 95       	ret

0000135a <gpioPinMode>:
	
	return ret;
}
    135a:	cf 93       	push	r28
	}
	return ret;
}

bool gpioPinMode(uint8_t ch, uint8_t mode)
{
    135c:	df 93       	push	r29
    135e:	00 d0       	rcall	.+0      	; 0x1360 <gpioPinMode+0x6>
    1360:	cd b7       	in	r28, 0x3d	; 61
    1362:	de b7       	in	r29, 0x3e	; 62
	bool ret = false;
	
	GPIO_InitTypeDef GPIO_InitStruct = {0};
    1364:	1a 82       	std	Y+2, r1	; 0x02
    1366:	19 82       	std	Y+1, r1	; 0x01
	
	if (ch < 0 || ch >= GPIO_MAX_CH) return ret;
    1368:	86 30       	cpi	r24, 0x06	; 6
    136a:	b8 f4       	brcc	.+46     	; 0x139a <gpioPinMode+0x40>
	
	switch(mode)
    136c:	61 30       	cpi	r22, 0x01	; 1
    136e:	11 f4       	brne	.+4      	; 0x1374 <gpioPinMode+0x1a>
		case _DEF_INPUT:
			GPIO_InitStruct.Mode = GPIO_MODE_INPUT;
		break;
		
		case _DEF_OUTPUT:
			GPIO_InitStruct.Mode = GPIO_MODE_OUTPUT;
    1370:	91 e0       	ldi	r25, 0x01	; 1
    1372:	9a 83       	std	Y+2, r25	; 0x02
		break;
		default:
		break;
	}
	
	GPIO_InitStruct.Pin = gpio_tbl[ch].pin;
    1374:	90 e0       	ldi	r25, 0x00	; 0
    1376:	fc 01       	movw	r30, r24
    1378:	ee 0f       	add	r30, r30
    137a:	ff 1f       	adc	r31, r31
    137c:	ee 0f       	add	r30, r30
    137e:	ff 1f       	adc	r31, r31
    1380:	e8 0f       	add	r30, r24
    1382:	f9 1f       	adc	r31, r25
    1384:	e0 50       	subi	r30, 0x00	; 0
    1386:	ff 4f       	sbci	r31, 0xFF	; 255
    1388:	81 81       	ldd	r24, Z+1	; 0x01
    138a:	89 83       	std	Y+1, r24	; 0x01
	GPIO_Init(gpio_tbl[ch].port, &GPIO_InitStruct);
    138c:	be 01       	movw	r22, r28
    138e:	6f 5f       	subi	r22, 0xFF	; 255
    1390:	7f 4f       	sbci	r23, 0xFF	; 255
    1392:	80 81       	ld	r24, Z
    1394:	63 d3       	rcall	.+1734   	; 0x1a5c <GPIO_Init>
	ret = true;
	
	return ret;
    1396:	81 e0       	ldi	r24, 0x01	; 1
    1398:	01 c0       	rjmp	.+2      	; 0x139c <gpioPinMode+0x42>
{
	bool ret = false;
	
	GPIO_InitTypeDef GPIO_InitStruct = {0};
	
	if (ch < 0 || ch >= GPIO_MAX_CH) return ret;
    139a:	80 e0       	ldi	r24, 0x00	; 0
	GPIO_InitStruct.Pin = gpio_tbl[ch].pin;
	GPIO_Init(gpio_tbl[ch].port, &GPIO_InitStruct);
	ret = true;
	
	return ret;
}
    139c:	0f 90       	pop	r0
    139e:	0f 90       	pop	r0
    13a0:	df 91       	pop	r29
    13a2:	cf 91       	pop	r28
    13a4:	08 95       	ret

000013a6 <gpioInit>:
};

bool gpioPinMode(uint8_t ch, uint8_t mode);

bool gpioInit(void)
{
    13a6:	0f 93       	push	r16
    13a8:	1f 93       	push	r17
    13aa:	cf 93       	push	r28
    13ac:	00 e0       	ldi	r16, 0x00	; 0
    13ae:	11 e0       	ldi	r17, 0x01	; 1
    13b0:	c0 e0       	ldi	r28, 0x00	; 0
	bool ret = true;
	
	for(int i = 0; i < GPIO_MAX_CH; i++)
	{
		gpioPinMode(i, gpio_tbl[i].mode);
    13b2:	f8 01       	movw	r30, r16
    13b4:	62 81       	ldd	r22, Z+2	; 0x02
    13b6:	8c 2f       	mov	r24, r28
    13b8:	d0 df       	rcall	.-96     	; 0x135a <gpioPinMode>
    13ba:	0b 5f       	subi	r16, 0xFB	; 251
    13bc:	1f 4f       	sbci	r17, 0xFF	; 255
    13be:	cf 5f       	subi	r28, 0xFF	; 255

bool gpioInit(void)
{
	bool ret = true;
	
	for(int i = 0; i < GPIO_MAX_CH; i++)
    13c0:	c6 30       	cpi	r28, 0x06	; 6
    13c2:	b9 f7       	brne	.-18     	; 0x13b2 <gpioInit+0xc>
	{
		gpioPinMode(i, gpio_tbl[i].mode);
	}
	return ret;
}
    13c4:	81 e0       	ldi	r24, 0x01	; 1
    13c6:	cf 91       	pop	r28
    13c8:	1f 91       	pop	r17
    13ca:	0f 91       	pop	r16
    13cc:	08 95       	ret

000013ce <gpioPinWrite>:
	return ret;
}

void gpioPinWrite(uint8_t ch, bool value)
{
	if (ch < 0 || ch >= GPIO_MAX_CH) return;
    13ce:	86 30       	cpi	r24, 0x06	; 6
    13d0:	00 f5       	brcc	.+64     	; 0x1412 <gpioPinWrite+0x44>
	if (value)
    13d2:	66 23       	and	r22, r22
    13d4:	81 f0       	breq	.+32     	; 0x13f6 <gpioPinWrite+0x28>
	{
		GPIO_WritePin(gpio_tbl[ch].port, gpio_tbl[ch].pin, gpio_tbl[ch].on_state);
    13d6:	90 e0       	ldi	r25, 0x00	; 0
    13d8:	fc 01       	movw	r30, r24
    13da:	ee 0f       	add	r30, r30
    13dc:	ff 1f       	adc	r31, r31
    13de:	ee 0f       	add	r30, r30
    13e0:	ff 1f       	adc	r31, r31
    13e2:	8e 0f       	add	r24, r30
    13e4:	9f 1f       	adc	r25, r31
    13e6:	fc 01       	movw	r30, r24
    13e8:	e0 50       	subi	r30, 0x00	; 0
    13ea:	ff 4f       	sbci	r31, 0xFF	; 255
    13ec:	43 81       	ldd	r20, Z+3	; 0x03
    13ee:	61 81       	ldd	r22, Z+1	; 0x01
    13f0:	80 81       	ld	r24, Z
    13f2:	6f c3       	rjmp	.+1758   	; 0x1ad2 <GPIO_WritePin>
    13f4:	08 95       	ret
	}
	else
	{
		GPIO_WritePin(gpio_tbl[ch].port, gpio_tbl[ch].pin, gpio_tbl[ch].off_state);
    13f6:	90 e0       	ldi	r25, 0x00	; 0
    13f8:	fc 01       	movw	r30, r24
    13fa:	ee 0f       	add	r30, r30
    13fc:	ff 1f       	adc	r31, r31
    13fe:	ee 0f       	add	r30, r30
    1400:	ff 1f       	adc	r31, r31
    1402:	e8 0f       	add	r30, r24
    1404:	f9 1f       	adc	r31, r25
    1406:	e0 50       	subi	r30, 0x00	; 0
    1408:	ff 4f       	sbci	r31, 0xFF	; 255
    140a:	44 81       	ldd	r20, Z+4	; 0x04
    140c:	61 81       	ldd	r22, Z+1	; 0x01
    140e:	80 81       	ld	r24, Z
    1410:	60 c3       	rjmp	.+1728   	; 0x1ad2 <GPIO_WritePin>
    1412:	08 95       	ret

00001414 <pwmInit>:

pwm_t pwm_tbl[PWM_MAX_CH];


bool pwmInit(void)
{
    1414:	e5 e7       	ldi	r30, 0x75	; 117
    1416:	f4 e0       	ldi	r31, 0x04	; 4
    1418:	89 e9       	ldi	r24, 0x99	; 153
    141a:	94 e0       	ldi	r25, 0x04	; 4
	bool ret = true;
	
	for (int i = 0; i < PWM_MAX_CH; i++)
	{
		pwm_tbl[i].is_open		= false;
    141c:	10 82       	st	Z, r1
		pwm_tbl[i].h_tim8		= NULL;
    141e:	12 82       	std	Z+2, r1	; 0x02
    1420:	11 82       	std	Z+1, r1	; 0x01
		pwm_tbl[i].h_tim16		= NULL;
    1422:	14 82       	std	Z+4, r1	; 0x04
    1424:	13 82       	std	Z+3, r1	; 0x03
		pwm_tbl[i].h_tim8_pwm	= NULL;
    1426:	16 82       	std	Z+6, r1	; 0x06
    1428:	15 82       	std	Z+5, r1	; 0x05
		pwm_tbl[i].h_tim16_pwm	= NULL;
    142a:	10 86       	std	Z+8, r1	; 0x08
    142c:	17 82       	std	Z+7, r1	; 0x07
    142e:	39 96       	adiw	r30, 0x09	; 9

bool pwmInit(void)
{
	bool ret = true;
	
	for (int i = 0; i < PWM_MAX_CH; i++)
    1430:	e8 17       	cp	r30, r24
    1432:	f9 07       	cpc	r31, r25
    1434:	99 f7       	brne	.-26     	; 0x141c <pwmInit+0x8>
		pwm_tbl[i].h_tim8_pwm	= NULL;
		pwm_tbl[i].h_tim16_pwm	= NULL;
	}
	
	return ret;
}
    1436:	81 e0       	ldi	r24, 0x01	; 1
    1438:	08 95       	ret

0000143a <hold>:
	motorStop();
}

void hold(uint8_t *params)
{
	motorBreak();
    143a:	0d cc       	rjmp	.-2022   	; 0xc56 <motorBreak>
    143c:	08 95       	ret

0000143e <stop>:

#ifdef _USE_HW_DRIVEMOTOR

void stop(uint8_t *params)
{
	motorBreak();
    143e:	0b dc       	rcall	.-2026   	; 0xc56 <motorBreak>
	#else
		//round up by default
		__ticks_dc = (uint32_t)(ceil(fabs(__tmp)));
	#endif

	__builtin_avr_delay_cycles(__ticks_dc);
    1440:	2f ef       	ldi	r18, 0xFF	; 255
    1442:	81 ee       	ldi	r24, 0xE1	; 225
    1444:	94 e0       	ldi	r25, 0x04	; 4
    1446:	21 50       	subi	r18, 0x01	; 1
    1448:	80 40       	sbci	r24, 0x00	; 0
    144a:	90 40       	sbci	r25, 0x00	; 0
    144c:	e1 f7       	brne	.-8      	; 0x1446 <stop+0x8>
    144e:	00 c0       	rjmp	.+0      	; 0x1450 <stop+0x12>
	_delay_ms(100);
	motorStop();
    1450:	00 00       	nop
    1452:	f2 cb       	rjmp	.-2076   	; 0xc38 <motorStop>
    1454:	08 95       	ret

00001456 <advance>:
	motorBreak();
}

void advance(uint8_t *params)
{
	motorSetSpeed(params[0]);
    1456:	fc 01       	movw	r30, r24
    1458:	80 81       	ld	r24, Z
    145a:	0c dc       	rcall	.-2024   	; 0xc74 <motorSetSpeed>
	motorAdvance();
    145c:	c4 cc       	rjmp	.-1656   	; 0xde6 <motorAdvance>
    145e:	08 95       	ret

00001460 <reverse>:
    1460:	fc 01       	movw	r30, r24
}

void reverse(uint8_t *params)
{
	motorSetSpeed(params[0]);
    1462:	80 81       	ld	r24, Z
    1464:	07 dc       	rcall	.-2034   	; 0xc74 <motorSetSpeed>
	motorGoBackward();
    1466:	c3 cc       	rjmp	.-1658   	; 0xdee <motorGoBackward>
    1468:	08 95       	ret

0000146a <turn>:
    146a:	cf 93       	push	r28
}

void turn(uint8_t *params)
{
    146c:	df 93       	push	r29
    146e:	ec 01       	movw	r28, r24
	motorSetSpeed(params[1]);
    1470:	89 81       	ldd	r24, Y+1	; 0x01
    1472:	00 dc       	rcall	.-2048   	; 0xc74 <motorSetSpeed>
	motorSpin(params[0]);
    1474:	81 e0       	ldi	r24, 0x01	; 1
    1476:	98 81       	ld	r25, Y
    1478:	91 11       	cpse	r25, r1
    147a:	01 c0       	rjmp	.+2      	; 0x147e <turn+0x14>
    147c:	80 e0       	ldi	r24, 0x00	; 0
    147e:	bb dc       	rcall	.-1674   	; 0xdf6 <motorSpin>
}
    1480:	df 91       	pop	r29
    1482:	cf 91       	pop	r28
    1484:	08 95       	ret

00001486 <steering>:

void steering(uint8_t *params)
{
    1486:	cf 93       	push	r28
    1488:	df 93       	push	r29
    148a:	ec 01       	movw	r28, r24
	motorSetSpeed(params[1]);
    148c:	89 81       	ldd	r24, Y+1	; 0x01
    148e:	f2 db       	rcall	.-2076   	; 0xc74 <motorSetSpeed>
	motorSteering(params[0]);
    1490:	88 81       	ld	r24, Y
    1492:	ba dc       	rcall	.-1676   	; 0xe08 <motorSteering>
}
    1494:	df 91       	pop	r29
    1496:	cf 91       	pop	r28
    1498:	08 95       	ret

0000149a <left_motor_config>:

void left_motor_config(uint8_t *params)
{
    149a:	cf 93       	push	r28
    149c:	df 93       	push	r29
    149e:	ec 01       	movw	r28, r24
	motorSetLeftSpeed(params[0]);
    14a0:	88 81       	ld	r24, Y
    14a2:	fc db       	rcall	.-2056   	; 0xc9c <motorSetLeftSpeed>
	motorSetLeftDirection((bool)params[1]);	
    14a4:	81 e0       	ldi	r24, 0x01	; 1
    14a6:	99 81       	ldd	r25, Y+1	; 0x01
    14a8:	91 11       	cpse	r25, r1
    14aa:	01 c0       	rjmp	.+2      	; 0x14ae <left_motor_config+0x14>
    14ac:	80 e0       	ldi	r24, 0x00	; 0
	motorRun();
    14ae:	24 dc       	rcall	.-1976   	; 0xcf8 <motorSetLeftDirection>
    14b0:	b4 db       	rcall	.-2200   	; 0xc1a <motorRun>
}
    14b2:	df 91       	pop	r29
    14b4:	cf 91       	pop	r28
    14b6:	08 95       	ret

000014b8 <right_motor_config>:

void right_motor_config(uint8_t *params)
{
    14b8:	cf 93       	push	r28
    14ba:	df 93       	push	r29
    14bc:	ec 01       	movw	r28, r24
	motorSetRightSpeed(params[0]);
    14be:	88 81       	ld	r24, Y
    14c0:	f5 db       	rcall	.-2070   	; 0xcac <motorSetRightSpeed>
	motorSetRightDirection((bool)params[1]);	
    14c2:	81 e0       	ldi	r24, 0x01	; 1
    14c4:	99 81       	ldd	r25, Y+1	; 0x01
    14c6:	91 11       	cpse	r25, r1
    14c8:	01 c0       	rjmp	.+2      	; 0x14cc <right_motor_config+0x14>
    14ca:	80 e0       	ldi	r24, 0x00	; 0
	motorRun();
    14cc:	1d dc       	rcall	.-1990   	; 0xd08 <motorSetRightDirection>
    14ce:	a5 db       	rcall	.-2230   	; 0xc1a <motorRun>
}
    14d0:	df 91       	pop	r29
    14d2:	cf 91       	pop	r28
    14d4:	08 95       	ret

000014d6 <motor_config>:

void motor_config(uint8_t *params)
{
    14d6:	cf 93       	push	r28
    14d8:	df 93       	push	r29
    14da:	ec 01       	movw	r28, r24
	motorSetLeftSpeed(params[0]);
    14dc:	88 81       	ld	r24, Y
    14de:	de db       	rcall	.-2116   	; 0xc9c <motorSetLeftSpeed>
	motorSetLeftDirection(params[1]);
    14e0:	81 e0       	ldi	r24, 0x01	; 1
    14e2:	99 81       	ldd	r25, Y+1	; 0x01
    14e4:	91 11       	cpse	r25, r1
    14e6:	01 c0       	rjmp	.+2      	; 0x14ea <motor_config+0x14>
    14e8:	80 e0       	ldi	r24, 0x00	; 0
    14ea:	06 dc       	rcall	.-2036   	; 0xcf8 <motorSetLeftDirection>
	motorSetRightSpeed(params[2]);
    14ec:	8a 81       	ldd	r24, Y+2	; 0x02
    14ee:	de db       	rcall	.-2116   	; 0xcac <motorSetRightSpeed>
    14f0:	81 e0       	ldi	r24, 0x01	; 1
	motorSetRightDirection(params[3]);
    14f2:	9b 81       	ldd	r25, Y+3	; 0x03
    14f4:	91 11       	cpse	r25, r1
    14f6:	01 c0       	rjmp	.+2      	; 0x14fa <motor_config+0x24>
    14f8:	80 e0       	ldi	r24, 0x00	; 0
    14fa:	06 dc       	rcall	.-2036   	; 0xd08 <motorSetRightDirection>
	motorRun();
    14fc:	8e db       	rcall	.-2276   	; 0xc1a <motorRun>
    14fe:	df 91       	pop	r29
}
    1500:	cf 91       	pop	r28
    1502:	08 95       	ret

00001504 <rosServerInit>:
    1504:	4a d0       	rcall	.+148    	; 0x159a <rosInit>


void rosServerInit(void)
{
	rosInit();
	rosLoadDriver(&ros_handle);
    1506:	81 eb       	ldi	r24, 0xB1	; 177
    1508:	94 e0       	ldi	r25, 0x04	; 4
    150a:	49 d0       	rcall	.+146    	; 0x159e <rosLoadDriver>
	rosOpen(&ros_handle, _DEF_ROS0, 38400);
    150c:	20 e0       	ldi	r18, 0x00	; 0
    150e:	36 e9       	ldi	r19, 0x96	; 150
    1510:	40 e0       	ldi	r20, 0x00	; 0
    1512:	50 e0       	ldi	r21, 0x00	; 0
    1514:	60 e0       	ldi	r22, 0x00	; 0
    1516:	81 eb       	ldi	r24, 0xB1	; 177
    1518:	94 e0       	ldi	r25, 0x04	; 4
    151a:	46 d0       	rcall	.+140    	; 0x15a8 <rosOpen>
	rosAddService(&ros_handle, stop);
    151c:	6f e1       	ldi	r22, 0x1F	; 31
    151e:	7a e0       	ldi	r23, 0x0A	; 10
    1520:	81 eb       	ldi	r24, 0xB1	; 177
    1522:	94 e0       	ldi	r25, 0x04	; 4
    1524:	23 d1       	rcall	.+582    	; 0x176c <rosAddService>
	rosAddService(&ros_handle, hold);
    1526:	6d e1       	ldi	r22, 0x1D	; 29
    1528:	7a e0       	ldi	r23, 0x0A	; 10
    152a:	81 eb       	ldi	r24, 0xB1	; 177
    152c:	94 e0       	ldi	r25, 0x04	; 4
    152e:	1e d1       	rcall	.+572    	; 0x176c <rosAddService>
	rosAddService(&ros_handle, advance);
    1530:	6b e2       	ldi	r22, 0x2B	; 43
    1532:	7a e0       	ldi	r23, 0x0A	; 10
    1534:	81 eb       	ldi	r24, 0xB1	; 177
    1536:	94 e0       	ldi	r25, 0x04	; 4
    1538:	19 d1       	rcall	.+562    	; 0x176c <rosAddService>
	rosAddService(&ros_handle, reverse);
    153a:	60 e3       	ldi	r22, 0x30	; 48
    153c:	7a e0       	ldi	r23, 0x0A	; 10
    153e:	81 eb       	ldi	r24, 0xB1	; 177
    1540:	94 e0       	ldi	r25, 0x04	; 4
    1542:	14 d1       	rcall	.+552    	; 0x176c <rosAddService>
	rosAddService(&ros_handle, turn);
    1544:	65 e3       	ldi	r22, 0x35	; 53
    1546:	7a e0       	ldi	r23, 0x0A	; 10
    1548:	81 eb       	ldi	r24, 0xB1	; 177
    154a:	94 e0       	ldi	r25, 0x04	; 4
    154c:	0f d1       	rcall	.+542    	; 0x176c <rosAddService>
	rosAddService(&ros_handle, steering);
    154e:	63 e4       	ldi	r22, 0x43	; 67
    1550:	7a e0       	ldi	r23, 0x0A	; 10
    1552:	81 eb       	ldi	r24, 0xB1	; 177
    1554:	94 e0       	ldi	r25, 0x04	; 4
    1556:	0a d1       	rcall	.+532    	; 0x176c <rosAddService>
	rosAddService(&ros_handle, left_motor_config);
    1558:	6d e4       	ldi	r22, 0x4D	; 77
    155a:	7a e0       	ldi	r23, 0x0A	; 10
    155c:	81 eb       	ldi	r24, 0xB1	; 177
    155e:	94 e0       	ldi	r25, 0x04	; 4
    1560:	05 d1       	rcall	.+522    	; 0x176c <rosAddService>
	rosAddService(&ros_handle, right_motor_config);
    1562:	6c e5       	ldi	r22, 0x5C	; 92
    1564:	7a e0       	ldi	r23, 0x0A	; 10
    1566:	81 eb       	ldi	r24, 0xB1	; 177
    1568:	94 e0       	ldi	r25, 0x04	; 4
    156a:	00 d1       	rcall	.+512    	; 0x176c <rosAddService>
    156c:	6b e6       	ldi	r22, 0x6B	; 107
	rosAddService(&ros_handle, motor_config);
    156e:	7a e0       	ldi	r23, 0x0A	; 10
    1570:	81 eb       	ldi	r24, 0xB1	; 177
    1572:	94 e0       	ldi	r25, 0x04	; 4
    1574:	fb c0       	rjmp	.+502    	; 0x176c <rosAddService>
    1576:	08 95       	ret

00001578 <rosServerRun>:
    1578:	81 eb       	ldi	r24, 0xB1	; 177
    157a:	94 e0       	ldi	r25, 0x04	; 4
void rosServerRun(void)
{
	//char *str = "hello";
	//rosSendInst(&ros_handle, 0x00, 0x00, (uint8_t*)str, 6);
	uint8_t service_id;
	if (rosReceivePacket(&ros_handle))
    157c:	42 d0       	rcall	.+132    	; 0x1602 <rosReceivePacket>
    157e:	88 23       	and	r24, r24
    1580:	59 f0       	breq	.+22     	; 0x1598 <rosServerRun+0x20>
	{
		service_id = ros_handle.packet.inst;
    1582:	60 91 bf 04 	lds	r22, 0x04BF	; 0x8004bf <ros_handle+0xe>
		if ((service_id < 0 || service_id >= ROS_MAX_SERVICE))
    1586:	66 23       	and	r22, r22
    1588:	3c f0       	brlt	.+14     	; 0x1598 <rosServerRun+0x20>
		{
			return;
		}
		//ros_handle.driver.write(ros_handle.ch, (uint8_t*)&(ros_handle.packet.msgs[0]), 1);
		rosCallService(&ros_handle, service_id, &ros_handle.packet.msgs[0]);
    158a:	40 91 c0 04 	lds	r20, 0x04C0	; 0x8004c0 <ros_handle+0xf>
    158e:	50 91 c1 04 	lds	r21, 0x04C1	; 0x8004c1 <ros_handle+0x10>
    1592:	81 eb       	ldi	r24, 0xB1	; 177
    1594:	94 e0       	ldi	r25, 0x04	; 4
    1596:	fc c0       	rjmp	.+504    	; 0x1790 <rosCallService>
    1598:	08 95       	ret

0000159a <rosInit>:
	p_ros->packet_buf[index++] = 255 - (uint8_t)(checksum % 256);
	
	p_ros->driver.write(p_ros->ch, p_ros->packet_buf, index);
	
	return ret;
}
    159a:	81 e0       	ldi	r24, 0x01	; 1
    159c:	08 95       	ret

0000159e <rosLoadDriver>:
    159e:	8e 5e       	subi	r24, 0xEE	; 238
    15a0:	9d 4f       	sbci	r25, 0xFD	; 253
    15a2:	2f d1       	rcall	.+606    	; 0x1802 <rosUartDriver>
    15a4:	81 e0       	ldi	r24, 0x01	; 1
    15a6:	08 95       	ret

000015a8 <rosOpen>:
    15a8:	cf 93       	push	r28
    15aa:	df 93       	push	r29
    15ac:	ec 01       	movw	r28, r24
    15ae:	96 2f       	mov	r25, r22
    15b0:	fe 01       	movw	r30, r28
    15b2:	ee 5e       	subi	r30, 0xEE	; 238
    15b4:	fd 4f       	sbci	r31, 0xFD	; 253
    15b6:	80 81       	ld	r24, Z
    15b8:	88 23       	and	r24, r24
    15ba:	01 f1       	breq	.+64     	; 0x15fc <rosOpen+0x54>
    15bc:	ba 01       	movw	r22, r20
    15be:	a9 01       	movw	r20, r18
    15c0:	89 2f       	mov	r24, r25
    15c2:	99 83       	std	Y+1, r25	; 0x01
    15c4:	4a 83       	std	Y+2, r20	; 0x02
    15c6:	5b 83       	std	Y+3, r21	; 0x03
    15c8:	6c 83       	std	Y+4, r22	; 0x04
    15ca:	7d 83       	std	Y+5, r23	; 0x05
    15cc:	1f 82       	std	Y+7, r1	; 0x07
    15ce:	1e 82       	std	Y+6, r1	; 0x06
    15d0:	18 8a       	std	Y+16, r1	; 0x10
    15d2:	1f 86       	std	Y+15, r1	; 0x0f
    15d4:	31 96       	adiw	r30, 0x01	; 1
    15d6:	01 90       	ld	r0, Z+
    15d8:	f0 81       	ld	r31, Z
    15da:	e0 2d       	mov	r30, r0
    15dc:	09 95       	icall
    15de:	88 83       	st	Y, r24
    15e0:	fe 01       	movw	r30, r28
    15e2:	e1 5e       	subi	r30, 0xE1	; 225
    15e4:	fd 4f       	sbci	r31, 0xFD	; 253
    15e6:	9e 01       	movw	r18, r28
    15e8:	21 5e       	subi	r18, 0xE1	; 225
    15ea:	3c 4f       	sbci	r19, 0xFC	; 252
    15ec:	11 92       	st	Z+, r1
    15ee:	11 92       	st	Z+, r1
    15f0:	e2 17       	cp	r30, r18
    15f2:	f3 07       	cpc	r31, r19
    15f4:	d9 f7       	brne	.-10     	; 0x15ec <rosOpen+0x44>
    15f6:	c1 5e       	subi	r28, 0xE1	; 225
    15f8:	dc 4f       	sbci	r29, 0xFC	; 252
    15fa:	18 82       	st	Y, r1
    15fc:	df 91       	pop	r29
    15fe:	cf 91       	pop	r28
    1600:	08 95       	ret

00001602 <rosReceivePacket>:


bool rosReceivePacket(ros_t *p_ros)
{
    1602:	1f 93       	push	r17
    1604:	cf 93       	push	r28
    1606:	df 93       	push	r29
	bool ret = false;
	uint8_t rx_data;
	uint8_t index;
	uint32_t buf;
	
	if (p_ros->is_open != true)
    1608:	fc 01       	movw	r30, r24
    160a:	10 81       	ld	r17, Z
    160c:	11 23       	and	r17, r17
    160e:	09 f4       	brne	.+2      	; 0x1612 <rosReceivePacket+0x10>
    1610:	a8 c0       	rjmp	.+336    	; 0x1762 <rosReceivePacket+0x160>
    1612:	ec 01       	movw	r28, r24
	{
		return false;
	}
	
	if (p_ros->driver.available(p_ros->ch) > 0)
    1614:	e9 5e       	subi	r30, 0xE9	; 233
    1616:	fd 4f       	sbci	r31, 0xFD	; 253
    1618:	01 90       	ld	r0, Z+
    161a:	f0 81       	ld	r31, Z
    161c:	e0 2d       	mov	r30, r0
    161e:	89 81       	ldd	r24, Y+1	; 0x01
    1620:	09 95       	icall
    1622:	67 2b       	or	r22, r23
    1624:	68 2b       	or	r22, r24
    1626:	69 2b       	or	r22, r25
    1628:	09 f4       	brne	.+2      	; 0x162c <rosReceivePacket+0x2a>
    162a:	96 c0       	rjmp	.+300    	; 0x1758 <rosReceivePacket+0x156>
	{
		//rx_data = p_ros->driver.available(p_ros->ch);
		//p_ros->driver.write(p_ros->ch, &rx_data, 1);
		rx_data = p_ros->driver.read(p_ros->ch);
    162c:	fe 01       	movw	r30, r28
    162e:	e5 5e       	subi	r30, 0xE5	; 229
    1630:	fd 4f       	sbci	r31, 0xFD	; 253
    1632:	01 90       	ld	r0, Z+
    1634:	f0 81       	ld	r31, Z
    1636:	e0 2d       	mov	r30, r0
    1638:	89 81       	ldd	r24, Y+1	; 0x01
    163a:	09 95       	icall
	else
	{
		return false;
	}

	switch(p_ros->state)
    163c:	ee 81       	ldd	r30, Y+6	; 0x06
    163e:	4e 2f       	mov	r20, r30
    1640:	50 e0       	ldi	r21, 0x00	; 0
    1642:	49 30       	cpi	r20, 0x09	; 9
    1644:	51 05       	cpc	r21, r1
    1646:	08 f0       	brcs	.+2      	; 0x164a <rosReceivePacket+0x48>
    1648:	7f c0       	rjmp	.+254    	; 0x1748 <rosReceivePacket+0x146>
    164a:	fa 01       	movw	r30, r20
    164c:	ea 5b       	subi	r30, 0xBA	; 186
    164e:	ff 4f       	sbci	r31, 0xFF	; 255
    1650:	0c 94 90 15 	jmp	0x2b20	; 0x2b20 <__tablejump2__>
	{
		case ROS_STATE_SYNC1:
			if (rx_data == 0xFF)
    1654:	8f 3f       	cpi	r24, 0xFF	; 255
    1656:	21 f4       	brne	.+8      	; 0x1660 <rosReceivePacket+0x5e>
			{
				p_ros->packet_buf[ROS_PKT_SYNC1] = rx_data;
    1658:	8a 8b       	std	Y+18, r24	; 0x12
				p_ros->state = ROS_STATE_SYNC2;	
    165a:	81 e0       	ldi	r24, 0x01	; 1
    165c:	8e 83       	std	Y+6, r24	; 0x06
    165e:	80 c0       	rjmp	.+256    	; 0x1760 <rosReceivePacket+0x15e>
			}
			else
			{
				p_ros->state = ROS_STATE_SYNC1;	
    1660:	1e 82       	std	Y+6, r1	; 0x06
    1662:	7e c0       	rjmp	.+252    	; 0x1760 <rosReceivePacket+0x15e>
			}
			break;
		case ROS_STATE_SYNC2:
			if (rx_data == 0xFF)
    1664:	8f 3f       	cpi	r24, 0xFF	; 255
    1666:	21 f4       	brne	.+8      	; 0x1670 <rosReceivePacket+0x6e>
			{
				p_ros->packet_buf[ROS_PKT_SYNC2] = rx_data;
    1668:	8b 8b       	std	Y+19, r24	; 0x13
				p_ros->state = ROS_STATE_LEN1;
    166a:	82 e0       	ldi	r24, 0x02	; 2
    166c:	8e 83       	std	Y+6, r24	; 0x06
    166e:	78 c0       	rjmp	.+240    	; 0x1760 <rosReceivePacket+0x15e>
			}
			else
			{
				p_ros->state = ROS_STATE_SYNC1;
    1670:	1e 82       	std	Y+6, r1	; 0x06
    1672:	76 c0       	rjmp	.+236    	; 0x1760 <rosReceivePacket+0x15e>
			}
			break;
		case ROS_STATE_LEN1:
			p_ros->packet_buf[ROS_PKT_LEN1] = rx_data;
    1674:	8c 8b       	std	Y+20, r24	; 0x14
			p_ros->state = ROS_STATE_LEN2;
    1676:	83 e0       	ldi	r24, 0x03	; 3
    1678:	8e 83       	std	Y+6, r24	; 0x06
			break;
    167a:	72 c0       	rjmp	.+228    	; 0x1760 <rosReceivePacket+0x15e>
		case ROS_STATE_LEN2:
			p_ros->packet_buf[ROS_PKT_LEN2] = rx_data;
    167c:	8d 8b       	std	Y+21, r24	; 0x15
			p_ros->state = ROS_STATE_LENCHECK;
    167e:	84 e0       	ldi	r24, 0x04	; 4
    1680:	8e 83       	std	Y+6, r24	; 0x06
			break;
    1682:	6e c0       	rjmp	.+220    	; 0x1760 <rosReceivePacket+0x15e>
		case ROS_STATE_LENCHECK:
			p_ros->packet_buf[ROS_STATE_LENCHECK] = rx_data;
    1684:	8e 8b       	std	Y+22, r24	; 0x16
			
			buf = p_ros->packet_buf[ROS_PKT_LEN1] + p_ros->packet_buf[ROS_PKT_LEN2];
    1686:	2c 89       	ldd	r18, Y+20	; 0x14
			p_ros->packet.msg_len_checksum = 255 - (uint8_t)(buf % 256);
    1688:	9d 89       	ldd	r25, Y+21	; 0x15
    168a:	92 0f       	add	r25, r18
    168c:	90 95       	com	r25
    168e:	9c 87       	std	Y+12, r25	; 0x0c
			
			if (p_ros->packet.msg_len_checksum == p_ros->packet_buf[ROS_PKT_LENCHECK])
    1690:	89 13       	cpse	r24, r25
    1692:	03 c0       	rjmp	.+6      	; 0x169a <rosReceivePacket+0x98>
			{
				p_ros->state = ROS_STATE_ID1;
    1694:	85 e0       	ldi	r24, 0x05	; 5
    1696:	8e 83       	std	Y+6, r24	; 0x06
    1698:	01 c0       	rjmp	.+2      	; 0x169c <rosReceivePacket+0x9a>
			}
			else
			{
				p_ros->state = ROS_STATE_SYNC1;
    169a:	1e 82       	std	Y+6, r1	; 0x06
			}
			p_ros->packet.msg_len =	(p_ros->packet_buf[ROS_PKT_LEN1] >> 0) & 0xFF;
    169c:	82 2f       	mov	r24, r18
    169e:	90 e0       	ldi	r25, 0x00	; 0
    16a0:	9b 87       	std	Y+11, r25	; 0x0b
    16a2:	8a 87       	std	Y+10, r24	; 0x0a
			p_ros->packet.msg_len |= (p_ros->packet_buf[ROS_PKT_LEN2] >> 8) & 0xFF;
			
			break;
    16a4:	5d c0       	rjmp	.+186    	; 0x1760 <rosReceivePacket+0x15e>
		case ROS_STATE_ID1:
			p_ros->packet_buf[ROS_STATE_ID1] = rx_data;
    16a6:	8f 8b       	std	Y+23, r24	; 0x17
			p_ros->state = ROS_STATE_ID2;
    16a8:	86 e0       	ldi	r24, 0x06	; 6
    16aa:	8e 83       	std	Y+6, r24	; 0x06
			break;
    16ac:	59 c0       	rjmp	.+178    	; 0x1760 <rosReceivePacket+0x15e>
		case ROS_STATE_ID2:
			p_ros->packet_buf[ROS_STATE_ID2] = rx_data;
    16ae:	88 8f       	std	Y+24, r24	; 0x18
			p_ros->index = 7;
    16b0:	87 e0       	ldi	r24, 0x07	; 7
    16b2:	8f 83       	std	Y+7, r24	; 0x07
			p_ros->packet.msgs = &p_ros->packet_buf[7];
    16b4:	ce 01       	movw	r24, r28
    16b6:	49 96       	adiw	r24, 0x19	; 25
    16b8:	98 8b       	std	Y+16, r25	; 0x10
    16ba:	8f 87       	std	Y+15, r24	; 0x0f
			if (p_ros->packet.msg_len > 0)
    16bc:	8a 85       	ldd	r24, Y+10	; 0x0a
    16be:	9b 85       	ldd	r25, Y+11	; 0x0b
    16c0:	89 2b       	or	r24, r25
    16c2:	19 f0       	breq	.+6      	; 0x16ca <rosReceivePacket+0xc8>
			{
				p_ros->state = ROS_STATE_MSGS;
    16c4:	87 e0       	ldi	r24, 0x07	; 7
    16c6:	8e 83       	std	Y+6, r24	; 0x06
    16c8:	4b c0       	rjmp	.+150    	; 0x1760 <rosReceivePacket+0x15e>
			}
			else
			{
				p_ros->state = ROS_STATE_SYNC1;
    16ca:	1e 82       	std	Y+6, r1	; 0x06
    16cc:	40 c0       	rjmp	.+128    	; 0x174e <rosReceivePacket+0x14c>
				ret = true;
			}
			break;
		case ROS_STATE_MSGS:
			index = p_ros->index;
    16ce:	2f 81       	ldd	r18, Y+7	; 0x07
			p_ros->index++;
    16d0:	91 e0       	ldi	r25, 0x01	; 1
    16d2:	92 0f       	add	r25, r18
    16d4:	9f 83       	std	Y+7, r25	; 0x07
			p_ros->packet_buf[index] = rx_data;
    16d6:	fe 01       	movw	r30, r28
    16d8:	e2 0f       	add	r30, r18
    16da:	f1 1d       	adc	r31, r1
    16dc:	82 8b       	std	Z+18, r24	; 0x12
			
			if (p_ros->index >= p_ros->packet.msg_len + 7)
    16de:	89 2f       	mov	r24, r25
    16e0:	90 e0       	ldi	r25, 0x00	; 0
    16e2:	2a 85       	ldd	r18, Y+10	; 0x0a
    16e4:	3b 85       	ldd	r19, Y+11	; 0x0b
    16e6:	29 5f       	subi	r18, 0xF9	; 249
    16e8:	3f 4f       	sbci	r19, 0xFF	; 255
    16ea:	82 17       	cp	r24, r18
    16ec:	93 07       	cpc	r25, r19
    16ee:	c0 f1       	brcs	.+112    	; 0x1760 <rosReceivePacket+0x15e>
			{
				p_ros->state = ROS_STATE_CS;
    16f0:	88 e0       	ldi	r24, 0x08	; 8
    16f2:	8e 83       	std	Y+6, r24	; 0x06
    16f4:	35 c0       	rjmp	.+106    	; 0x1760 <rosReceivePacket+0x15e>
				//p_ros->driver.write(p_ros->ch, p_ros->packet_buf, p_ros->packet.msg_len + 7);
			}
			break;
		case ROS_STATE_CS:
			index = p_ros->index;
			p_ros->packet_buf[index] = rx_data;
    16f6:	9f 81       	ldd	r25, Y+7	; 0x07
    16f8:	fe 01       	movw	r30, r28
    16fa:	e9 0f       	add	r30, r25
    16fc:	f1 1d       	adc	r31, r1
    16fe:	82 8b       	std	Z+18, r24	; 0x12
			buf = 0;
			for (int i = 0; i < p_ros->packet.msg_len; i++)
    1700:	2a 85       	ldd	r18, Y+10	; 0x0a
    1702:	3b 85       	ldd	r19, Y+11	; 0x0b
    1704:	21 15       	cp	r18, r1
    1706:	31 05       	cpc	r19, r1
    1708:	91 f0       	breq	.+36     	; 0x172e <rosReceivePacket+0x12c>
    170a:	fe 01       	movw	r30, r28
    170c:	79 96       	adiw	r30, 0x19	; 25
    170e:	27 5e       	subi	r18, 0xE7	; 231
    1710:	3f 4f       	sbci	r19, 0xFF	; 255
    1712:	2c 0f       	add	r18, r28
    1714:	3d 1f       	adc	r19, r29
    1716:	40 e0       	ldi	r20, 0x00	; 0
    1718:	50 e0       	ldi	r21, 0x00	; 0
    171a:	ba 01       	movw	r22, r20
			{
				buf += p_ros->packet_buf[7 + i];
    171c:	91 91       	ld	r25, Z+
    171e:	49 0f       	add	r20, r25
    1720:	51 1d       	adc	r21, r1
    1722:	61 1d       	adc	r22, r1
    1724:	71 1d       	adc	r23, r1
			break;
		case ROS_STATE_CS:
			index = p_ros->index;
			p_ros->packet_buf[index] = rx_data;
			buf = 0;
			for (int i = 0; i < p_ros->packet.msg_len; i++)
    1726:	e2 17       	cp	r30, r18
    1728:	f3 07       	cpc	r31, r19
    172a:	c1 f7       	brne	.-16     	; 0x171c <rosReceivePacket+0x11a>
    172c:	03 c0       	rjmp	.+6      	; 0x1734 <rosReceivePacket+0x132>
			}
			break;
		case ROS_STATE_CS:
			index = p_ros->index;
			p_ros->packet_buf[index] = rx_data;
			buf = 0;
    172e:	40 e0       	ldi	r20, 0x00	; 0
    1730:	50 e0       	ldi	r21, 0x00	; 0
    1732:	ba 01       	movw	r22, r20
			for (int i = 0; i < p_ros->packet.msg_len; i++)
			{
				buf += p_ros->packet_buf[7 + i];
			}
			p_ros->packet.checksum = 255 - (uint8_t)(buf % 256);
    1734:	40 95       	com	r20
    1736:	49 8b       	std	Y+17, r20	; 0x11
			//p_ros->driver.write(p_ros->ch, (uint8_t *)&(p_ros->packet.checksum), 1);
			if (p_ros->packet_buf[index] == p_ros->packet.checksum)
    1738:	84 13       	cpse	r24, r20
    173a:	03 c0       	rjmp	.+6      	; 0x1742 <rosReceivePacket+0x140>
			{
				ret = true;
				p_ros->state = ROS_STATE_SYNC1;
    173c:	1e 82       	std	Y+6, r1	; 0x06
			}
			p_ros->packet.checksum = 255 - (uint8_t)(buf % 256);
			//p_ros->driver.write(p_ros->ch, (uint8_t *)&(p_ros->packet.checksum), 1);
			if (p_ros->packet_buf[index] == p_ros->packet.checksum)
			{
				ret = true;
    173e:	81 e0       	ldi	r24, 0x01	; 1
    1740:	01 c0       	rjmp	.+2      	; 0x1744 <rosReceivePacket+0x142>
}


bool rosReceivePacket(ros_t *p_ros)
{
	bool ret = false;
    1742:	80 e0       	ldi	r24, 0x00	; 0
			{
				ret = true;
				p_ros->state = ROS_STATE_SYNC1;
			}
			
			p_ros->index = 0;
    1744:	1f 82       	std	Y+7, r1	; 0x07
		break;
    1746:	01 c0       	rjmp	.+2      	; 0x174a <rosReceivePacket+0x148>
}


bool rosReceivePacket(ros_t *p_ros)
{
	bool ret = false;
    1748:	80 e0       	ldi	r24, 0x00	; 0
			p_ros->index = 0;
		break;
		default:
			break;
	}
	if (ret == true)
    174a:	88 23       	and	r24, r24
    174c:	39 f0       	breq	.+14     	; 0x175c <rosReceivePacket+0x15a>
	{
		p_ros->packet.id = p_ros->packet_buf[ROS_PKT_ID2];
    174e:	88 8d       	ldd	r24, Y+24	; 0x18
    1750:	8d 87       	std	Y+13, r24	; 0x0d
		p_ros->packet.inst = p_ros->packet_buf[ROS_PKT_ID1];
    1752:	8f 89       	ldd	r24, Y+23	; 0x17
    1754:	8e 87       	std	Y+14, r24	; 0x0e
    1756:	05 c0       	rjmp	.+10     	; 0x1762 <rosReceivePacket+0x160>
		rx_data = p_ros->driver.read(p_ros->ch);
		//p_ros->driver.write(p_ros->ch, &rx_data, 1);
	}
	else
	{
		return false;
    1758:	10 e0       	ldi	r17, 0x00	; 0
    175a:	03 c0       	rjmp	.+6      	; 0x1762 <rosReceivePacket+0x160>
	{
		p_ros->packet.id = p_ros->packet_buf[ROS_PKT_ID2];
		p_ros->packet.inst = p_ros->packet_buf[ROS_PKT_ID1];
	}
	
	return ret;
    175c:	10 e0       	ldi	r17, 0x00	; 0
    175e:	01 c0       	rjmp	.+2      	; 0x1762 <rosReceivePacket+0x160>
    1760:	10 e0       	ldi	r17, 0x00	; 0
}
    1762:	81 2f       	mov	r24, r17
    1764:	df 91       	pop	r29
    1766:	cf 91       	pop	r28
    1768:	1f 91       	pop	r17
    176a:	08 95       	ret

0000176c <rosAddService>:


void rosAddService(ros_t *p_ros, void (*func)(uint8_t *params))
{
    176c:	9c 01       	movw	r18, r24
	p_ros->func[p_ros->service_index] = func;
    176e:	dc 01       	movw	r26, r24
    1770:	a1 5e       	subi	r26, 0xE1	; 225
    1772:	bc 4f       	sbci	r27, 0xFC	; 252
    1774:	9c 91       	ld	r25, X
    1776:	e9 2f       	mov	r30, r25
    1778:	f0 e0       	ldi	r31, 0x00	; 0
    177a:	ee 0f       	add	r30, r30
    177c:	ff 1f       	adc	r31, r31
    177e:	e2 0f       	add	r30, r18
    1780:	f3 1f       	adc	r31, r19
    1782:	e1 5e       	subi	r30, 0xE1	; 225
    1784:	fd 4f       	sbci	r31, 0xFD	; 253
    1786:	71 83       	std	Z+1, r23	; 0x01
    1788:	60 83       	st	Z, r22
	p_ros->service_index++;
    178a:	9f 5f       	subi	r25, 0xFF	; 255
    178c:	9c 93       	st	X, r25
    178e:	08 95       	ret

00001790 <rosCallService>:
}

void rosCallService(ros_t *p_ros, uint8_t service_ch_, uint8_t *params_)
{
	if (service_ch_ < 0 || service_ch_ >= ROS_MAX_SERVICE)
    1790:	66 23       	and	r22, r22
    1792:	6c f0       	brlt	.+26     	; 0x17ae <rosCallService+0x1e>
    1794:	fc 01       	movw	r30, r24
	{
		return;
	}
	
	p_ros->func[service_ch_](params_);
    1796:	70 e0       	ldi	r23, 0x00	; 0
    1798:	66 0f       	add	r22, r22
    179a:	77 1f       	adc	r23, r23
    179c:	e6 0f       	add	r30, r22
    179e:	f7 1f       	adc	r31, r23
    17a0:	e1 5e       	subi	r30, 0xE1	; 225
    17a2:	fd 4f       	sbci	r31, 0xFD	; 253
    17a4:	01 90       	ld	r0, Z+
    17a6:	f0 81       	ld	r31, Z
    17a8:	e0 2d       	mov	r30, r0
    17aa:	ca 01       	movw	r24, r20
    17ac:	09 95       	icall
    17ae:	08 95       	ret

000017b0 <close>:

bool close(uint8_t ros_ch_)
{
	bool ret = true;
	return ret;
}
    17b0:	81 e0       	ldi	r24, 0x01	; 1
    17b2:	08 95       	ret

000017b4 <open>:


bool open(uint8_t ros_ch_, uint32_t baud_)
{
	bool ret = false;
	switch(ros_ch_)
    17b4:	81 11       	cpse	r24, r1
    17b6:	03 c0       	rjmp	.+6      	; 0x17be <open+0xa>
	{
		case _DEF_ROS0:
		ret = uartOpen(ros_ch_tbl[ros_ch_], baud_);
    17b8:	81 e0       	ldi	r24, 0x01	; 1
    17ba:	42 c0       	rjmp	.+132    	; 0x1840 <uartOpen>
		break;
    17bc:	08 95       	ret
}


bool open(uint8_t ros_ch_, uint32_t baud_)
{
	bool ret = false;
    17be:	80 e0       	ldi	r24, 0x00	; 0
		default:
		break;
	}
	
	return ret;
}
    17c0:	08 95       	ret

000017c2 <available>:
}

uint32_t available(uint8_t ros_ch_)
{
	uint32_t ret = 0;
	switch(ros_ch_)
    17c2:	81 11       	cpse	r24, r1
    17c4:	03 c0       	rjmp	.+6      	; 0x17cc <available+0xa>
	{
		case _DEF_ROS0:
		ret = uartAvailable(ros_ch_tbl[ros_ch_]);
    17c6:	81 e0       	ldi	r24, 0x01	; 1
    17c8:	98 c0       	rjmp	.+304    	; 0x18fa <uartAvailable>
		break;
    17ca:	08 95       	ret
	return ret;
}

uint32_t available(uint8_t ros_ch_)
{
	uint32_t ret = 0;
    17cc:	60 e0       	ldi	r22, 0x00	; 0
    17ce:	70 e0       	ldi	r23, 0x00	; 0
    17d0:	cb 01       	movw	r24, r22
		break;
		default:
		break;
	}
	return ret;
}
    17d2:	08 95       	ret

000017d4 <write>:

uint32_t write(uint8_t ros_ch_, uint8_t *p_data, uint32_t length)
{
	uint32_t ret = 0;
	switch(ros_ch_)
    17d4:	81 11       	cpse	r24, r1
    17d6:	03 c0       	rjmp	.+6      	; 0x17de <write+0xa>
	{
		case _DEF_ROS0:
		ret = uartWrite(ros_ch_tbl[ros_ch_], p_data, length);
    17d8:	81 e0       	ldi	r24, 0x01	; 1
    17da:	d1 c0       	rjmp	.+418    	; 0x197e <uartWrite>
		break;
    17dc:	08 95       	ret
	return ret;
}

uint32_t write(uint8_t ros_ch_, uint8_t *p_data, uint32_t length)
{
	uint32_t ret = 0;
    17de:	60 e0       	ldi	r22, 0x00	; 0
    17e0:	70 e0       	ldi	r23, 0x00	; 0
    17e2:	cb 01       	movw	r24, r22
		break;
		default:
		break;
	}
	return ret;
}
    17e4:	08 95       	ret

000017e6 <read>:

uint8_t read(uint8_t ros_ch_)
{
	uint8_t ret = 0;
	switch(ros_ch_)
    17e6:	81 11       	cpse	r24, r1
    17e8:	03 c0       	rjmp	.+6      	; 0x17f0 <read+0xa>
	{
		case _DEF_ROS0:
		ret = uartRead(ros_ch_tbl[ros_ch_]);
    17ea:	81 e0       	ldi	r24, 0x01	; 1
    17ec:	99 c0       	rjmp	.+306    	; 0x1920 <uartRead>
		break;
    17ee:	08 95       	ret
	return ret;
}

uint8_t read(uint8_t ros_ch_)
{
	uint8_t ret = 0;
    17f0:	80 e0       	ldi	r24, 0x00	; 0
		default:
		break;
	}	
	
	return ret;
}
    17f2:	08 95       	ret

000017f4 <flush>:

bool flush(uint8_t ros_ch_)
{
	bool ret = true;
	switch(ros_ch_)
    17f4:	81 11       	cpse	r24, r1
    17f6:	03 c0       	rjmp	.+6      	; 0x17fe <flush+0xa>
	{
		case _DEF_ROS0:
		ret = uartFlush(ros_ch_tbl[ros_ch_]);
    17f8:	81 e0       	ldi	r24, 0x01	; 1
    17fa:	f8 c0       	rjmp	.+496    	; 0x19ec <uartFlush>
		break;
    17fc:	08 95       	ret
	return ret;
}

bool flush(uint8_t ros_ch_)
{
	bool ret = true;
    17fe:	81 e0       	ldi	r24, 0x01	; 1
		break;
		default:
		break;
	}
	return ret;
}
    1800:	08 95       	ret

00001802 <rosUartDriver>:
uint8_t		read(uint8_t ros_ch_);
bool		flush(uint8_t ros_ch_);


bool rosUartDriver(ros_driver_t *p_driver)
{
    1802:	fc 01       	movw	r30, r24
	bool ret = true;
	p_driver->is_init	= true;
    1804:	81 e0       	ldi	r24, 0x01	; 1
    1806:	80 83       	st	Z, r24
	p_driver->open		= open;
    1808:	8a ed       	ldi	r24, 0xDA	; 218
    180a:	9b e0       	ldi	r25, 0x0B	; 11
    180c:	92 83       	std	Z+2, r25	; 0x02
    180e:	81 83       	std	Z+1, r24	; 0x01
	p_driver->close		= close;
    1810:	88 ed       	ldi	r24, 0xD8	; 216
    1812:	9b e0       	ldi	r25, 0x0B	; 11
    1814:	94 83       	std	Z+4, r25	; 0x04
    1816:	83 83       	std	Z+3, r24	; 0x03
	p_driver->available = available;
    1818:	81 ee       	ldi	r24, 0xE1	; 225
    181a:	9b e0       	ldi	r25, 0x0B	; 11
    181c:	96 83       	std	Z+6, r25	; 0x06
    181e:	85 83       	std	Z+5, r24	; 0x05
	p_driver->write		= write;
    1820:	8a ee       	ldi	r24, 0xEA	; 234
    1822:	9b e0       	ldi	r25, 0x0B	; 11
    1824:	90 87       	std	Z+8, r25	; 0x08
    1826:	87 83       	std	Z+7, r24	; 0x07
	p_driver->read		= read;
    1828:	83 ef       	ldi	r24, 0xF3	; 243
    182a:	9b e0       	ldi	r25, 0x0B	; 11
    182c:	92 87       	std	Z+10, r25	; 0x0a
    182e:	81 87       	std	Z+9, r24	; 0x09
	p_driver->flush		= flush;
    1830:	8a ef       	ldi	r24, 0xFA	; 250
    1832:	9b e0       	ldi	r25, 0x0B	; 11
    1834:	94 87       	std	Z+12, r25	; 0x0c
    1836:	83 87       	std	Z+11, r24	; 0x0b
	
	return ret;
}
    1838:	81 e0       	ldi	r24, 0x01	; 1
    183a:	08 95       	ret

0000183c <uartInit>:
		case _DEF_UART1:
		baud = huart2.Init.BaudRate;
		break;
	}
	return baud;
}
    183c:	81 e0       	ldi	r24, 0x01	; 1
    183e:	08 95       	ret

00001840 <uartOpen>:
    1840:	88 23       	and	r24, r24
    1842:	19 f0       	breq	.+6      	; 0x184a <uartOpen+0xa>
    1844:	81 30       	cpi	r24, 0x01	; 1
    1846:	49 f1       	breq	.+82     	; 0x189a <uartOpen+0x5a>
    1848:	51 c0       	rjmp	.+162    	; 0x18ec <uartOpen+0xac>
    184a:	e1 ed       	ldi	r30, 0xD1	; 209
    184c:	f7 e0       	ldi	r31, 0x07	; 7
    184e:	10 82       	st	Z, r1
    1850:	41 83       	std	Z+1, r20	; 0x01
    1852:	52 83       	std	Z+2, r21	; 0x02
    1854:	63 83       	std	Z+3, r22	; 0x03
    1856:	74 83       	std	Z+4, r23	; 0x04
    1858:	16 82       	std	Z+6, r1	; 0x06
    185a:	17 82       	std	Z+7, r1	; 0x07
    185c:	15 82       	std	Z+5, r1	; 0x05
    185e:	82 e0       	ldi	r24, 0x02	; 2
    1860:	80 87       	std	Z+8, r24	; 0x08
    1862:	11 86       	std	Z+9, r1	; 0x09
    1864:	20 e0       	ldi	r18, 0x00	; 0
    1866:	31 e0       	ldi	r19, 0x01	; 1
    1868:	40 e0       	ldi	r20, 0x00	; 0
    186a:	50 e0       	ldi	r21, 0x00	; 0
    186c:	63 eb       	ldi	r22, 0xB3	; 179
    186e:	71 e0       	ldi	r23, 0x01	; 1
    1870:	83 eb       	ldi	r24, 0xB3	; 179
    1872:	93 e0       	ldi	r25, 0x03	; 3
    1874:	0e 94 30 02 	call	0x460	; 0x460 <qbufferCreate>
    1878:	81 ed       	ldi	r24, 0xD1	; 209
    187a:	97 e0       	ldi	r25, 0x07	; 7
    187c:	8b d4       	rcall	.+2326   	; 0x2194 <UART_Init>
    187e:	81 11       	cpse	r24, r1
    1880:	37 c0       	rjmp	.+110    	; 0x18f0 <uartOpen+0xb0>
    1882:	41 e0       	ldi	r20, 0x01	; 1
    1884:	50 e0       	ldi	r21, 0x00	; 0
    1886:	61 eb       	ldi	r22, 0xB1	; 177
    1888:	71 e0       	ldi	r23, 0x01	; 1
    188a:	81 ed       	ldi	r24, 0xD1	; 209
    188c:	97 e0       	ldi	r25, 0x07	; 7
    188e:	51 d7       	rcall	.+3746   	; 0x2732 <UART_Receive_IT>
    1890:	91 e0       	ldi	r25, 0x01	; 1
    1892:	88 23       	and	r24, r24
    1894:	81 f1       	breq	.+96     	; 0x18f6 <uartOpen+0xb6>
    1896:	90 e0       	ldi	r25, 0x00	; 0
    1898:	2e c0       	rjmp	.+92     	; 0x18f6 <uartOpen+0xb6>
    189a:	e8 ee       	ldi	r30, 0xE8	; 232
    189c:	f7 e0       	ldi	r31, 0x07	; 7
    189e:	81 e0       	ldi	r24, 0x01	; 1
    18a0:	80 83       	st	Z, r24
    18a2:	41 83       	std	Z+1, r20	; 0x01
    18a4:	52 83       	std	Z+2, r21	; 0x02
    18a6:	63 83       	std	Z+3, r22	; 0x03
    18a8:	74 83       	std	Z+4, r23	; 0x04
    18aa:	16 82       	std	Z+6, r1	; 0x06
    18ac:	17 82       	std	Z+7, r1	; 0x07
    18ae:	15 82       	std	Z+5, r1	; 0x05
    18b0:	82 e0       	ldi	r24, 0x02	; 2
    18b2:	80 87       	std	Z+8, r24	; 0x08
    18b4:	11 86       	std	Z+9, r1	; 0x09
    18b6:	20 e0       	ldi	r18, 0x00	; 0
    18b8:	31 e0       	ldi	r19, 0x01	; 1
    18ba:	40 e0       	ldi	r20, 0x00	; 0
    18bc:	50 e0       	ldi	r21, 0x00	; 0
    18be:	63 eb       	ldi	r22, 0xB3	; 179
    18c0:	72 e0       	ldi	r23, 0x02	; 2
    18c2:	81 ec       	ldi	r24, 0xC1	; 193
    18c4:	93 e0       	ldi	r25, 0x03	; 3
    18c6:	0e 94 30 02 	call	0x460	; 0x460 <qbufferCreate>
    18ca:	88 ee       	ldi	r24, 0xE8	; 232
    18cc:	97 e0       	ldi	r25, 0x07	; 7
    18ce:	62 d4       	rcall	.+2244   	; 0x2194 <UART_Init>
    18d0:	81 11       	cpse	r24, r1
    18d2:	10 c0       	rjmp	.+32     	; 0x18f4 <uartOpen+0xb4>
    18d4:	41 e0       	ldi	r20, 0x01	; 1
    18d6:	50 e0       	ldi	r21, 0x00	; 0
    18d8:	62 eb       	ldi	r22, 0xB2	; 178
    18da:	71 e0       	ldi	r23, 0x01	; 1
    18dc:	88 ee       	ldi	r24, 0xE8	; 232
    18de:	97 e0       	ldi	r25, 0x07	; 7
    18e0:	28 d7       	rcall	.+3664   	; 0x2732 <UART_Receive_IT>
    18e2:	91 e0       	ldi	r25, 0x01	; 1
    18e4:	88 23       	and	r24, r24
    18e6:	39 f0       	breq	.+14     	; 0x18f6 <uartOpen+0xb6>
    18e8:	90 e0       	ldi	r25, 0x00	; 0
    18ea:	05 c0       	rjmp	.+10     	; 0x18f6 <uartOpen+0xb6>
    18ec:	90 e0       	ldi	r25, 0x00	; 0
    18ee:	03 c0       	rjmp	.+6      	; 0x18f6 <uartOpen+0xb6>
    18f0:	90 e0       	ldi	r25, 0x00	; 0
    18f2:	01 c0       	rjmp	.+2      	; 0x18f6 <uartOpen+0xb6>
    18f4:	90 e0       	ldi	r25, 0x00	; 0
    18f6:	89 2f       	mov	r24, r25
    18f8:	08 95       	ret

000018fa <uartAvailable>:
    18fa:	88 23       	and	r24, r24
    18fc:	19 f0       	breq	.+6      	; 0x1904 <uartAvailable+0xa>
    18fe:	81 30       	cpi	r24, 0x01	; 1
    1900:	31 f0       	breq	.+12     	; 0x190e <uartAvailable+0x14>
    1902:	0a c0       	rjmp	.+20     	; 0x1918 <uartAvailable+0x1e>
    1904:	83 eb       	ldi	r24, 0xB3	; 179
    1906:	93 e0       	ldi	r25, 0x03	; 3
    1908:	0c 94 4b 03 	jmp	0x696	; 0x696 <qbufferAvailable>
    190c:	08 95       	ret
    190e:	81 ec       	ldi	r24, 0xC1	; 193
    1910:	93 e0       	ldi	r25, 0x03	; 3
    1912:	0c 94 4b 03 	jmp	0x696	; 0x696 <qbufferAvailable>
    1916:	08 95       	ret
    1918:	60 e0       	ldi	r22, 0x00	; 0
    191a:	70 e0       	ldi	r23, 0x00	; 0
    191c:	cb 01       	movw	r24, r22
    191e:	08 95       	ret

00001920 <uartRead>:
    1920:	cf 93       	push	r28
    1922:	df 93       	push	r29
    1924:	1f 92       	push	r1
    1926:	cd b7       	in	r28, 0x3d	; 61
    1928:	de b7       	in	r29, 0x3e	; 62
    192a:	19 82       	std	Y+1, r1	; 0x01
    192c:	88 23       	and	r24, r24
    192e:	19 f0       	breq	.+6      	; 0x1936 <uartRead+0x16>
    1930:	81 30       	cpi	r24, 0x01	; 1
    1932:	89 f0       	breq	.+34     	; 0x1956 <uartRead+0x36>
    1934:	1f c0       	rjmp	.+62     	; 0x1974 <uartRead+0x54>
    1936:	21 e0       	ldi	r18, 0x01	; 1
    1938:	30 e0       	ldi	r19, 0x00	; 0
    193a:	40 e0       	ldi	r20, 0x00	; 0
    193c:	50 e0       	ldi	r21, 0x00	; 0
    193e:	be 01       	movw	r22, r28
    1940:	6f 5f       	subi	r22, 0xFF	; 255
    1942:	7f 4f       	sbci	r23, 0xFF	; 255
    1944:	83 eb       	ldi	r24, 0xB3	; 179
    1946:	93 e0       	ldi	r25, 0x03	; 3
    1948:	0e 94 e7 02 	call	0x5ce	; 0x5ce <qbufferRead>
    194c:	81 11       	cpse	r24, r1
    194e:	12 c0       	rjmp	.+36     	; 0x1974 <uartRead+0x54>
    1950:	8f ef       	ldi	r24, 0xFF	; 255
    1952:	89 83       	std	Y+1, r24	; 0x01
    1954:	0f c0       	rjmp	.+30     	; 0x1974 <uartRead+0x54>
    1956:	21 e0       	ldi	r18, 0x01	; 1
    1958:	30 e0       	ldi	r19, 0x00	; 0
    195a:	40 e0       	ldi	r20, 0x00	; 0
    195c:	50 e0       	ldi	r21, 0x00	; 0
    195e:	be 01       	movw	r22, r28
    1960:	6f 5f       	subi	r22, 0xFF	; 255
    1962:	7f 4f       	sbci	r23, 0xFF	; 255
    1964:	81 ec       	ldi	r24, 0xC1	; 193
    1966:	93 e0       	ldi	r25, 0x03	; 3
    1968:	0e 94 e7 02 	call	0x5ce	; 0x5ce <qbufferRead>
    196c:	81 11       	cpse	r24, r1
    196e:	02 c0       	rjmp	.+4      	; 0x1974 <uartRead+0x54>
    1970:	8f ef       	ldi	r24, 0xFF	; 255
    1972:	89 83       	std	Y+1, r24	; 0x01
    1974:	89 81       	ldd	r24, Y+1	; 0x01
    1976:	0f 90       	pop	r0
    1978:	df 91       	pop	r29
    197a:	cf 91       	pop	r28
    197c:	08 95       	ret

0000197e <uartWrite>:
    197e:	cf 92       	push	r12
    1980:	df 92       	push	r13
    1982:	ef 92       	push	r14
    1984:	ff 92       	push	r15
    1986:	0f 93       	push	r16
    1988:	1f 93       	push	r17
    198a:	69 01       	movw	r12, r18
    198c:	7a 01       	movw	r14, r20
    198e:	88 23       	and	r24, r24
    1990:	19 f0       	breq	.+6      	; 0x1998 <uartWrite+0x1a>
    1992:	81 30       	cpi	r24, 0x01	; 1
    1994:	61 f0       	breq	.+24     	; 0x19ae <uartWrite+0x30>
    1996:	16 c0       	rjmp	.+44     	; 0x19c4 <uartWrite+0x46>
    1998:	04 e6       	ldi	r16, 0x64	; 100
    199a:	10 e0       	ldi	r17, 0x00	; 0
    199c:	20 e0       	ldi	r18, 0x00	; 0
    199e:	30 e0       	ldi	r19, 0x00	; 0
    19a0:	a6 01       	movw	r20, r12
    19a2:	81 ed       	ldi	r24, 0xD1	; 209
    19a4:	97 e0       	ldi	r25, 0x07	; 7
    19a6:	f3 d5       	rcall	.+3046   	; 0x258e <UART_Transmit>
    19a8:	81 11       	cpse	r24, r1
    19aa:	10 c0       	rjmp	.+32     	; 0x19cc <uartWrite+0x4e>
    19ac:	16 c0       	rjmp	.+44     	; 0x19da <uartWrite+0x5c>
    19ae:	04 e6       	ldi	r16, 0x64	; 100
    19b0:	10 e0       	ldi	r17, 0x00	; 0
    19b2:	20 e0       	ldi	r18, 0x00	; 0
    19b4:	30 e0       	ldi	r19, 0x00	; 0
    19b6:	a6 01       	movw	r20, r12
    19b8:	88 ee       	ldi	r24, 0xE8	; 232
    19ba:	97 e0       	ldi	r25, 0x07	; 7
    19bc:	e8 d5       	rcall	.+3024   	; 0x258e <UART_Transmit>
    19be:	88 23       	and	r24, r24
    19c0:	61 f0       	breq	.+24     	; 0x19da <uartWrite+0x5c>
    19c2:	08 c0       	rjmp	.+16     	; 0x19d4 <uartWrite+0x56>
    19c4:	c1 2c       	mov	r12, r1
    19c6:	d1 2c       	mov	r13, r1
    19c8:	76 01       	movw	r14, r12
    19ca:	07 c0       	rjmp	.+14     	; 0x19da <uartWrite+0x5c>
    19cc:	c1 2c       	mov	r12, r1
    19ce:	d1 2c       	mov	r13, r1
    19d0:	76 01       	movw	r14, r12
    19d2:	03 c0       	rjmp	.+6      	; 0x19da <uartWrite+0x5c>
    19d4:	c1 2c       	mov	r12, r1
    19d6:	d1 2c       	mov	r13, r1
    19d8:	76 01       	movw	r14, r12
    19da:	c7 01       	movw	r24, r14
    19dc:	b6 01       	movw	r22, r12
    19de:	1f 91       	pop	r17
    19e0:	0f 91       	pop	r16
    19e2:	ff 90       	pop	r15
    19e4:	ef 90       	pop	r14
    19e6:	df 90       	pop	r13
    19e8:	cf 90       	pop	r12
    19ea:	08 95       	ret

000019ec <uartFlush>:

bool uartFlush(uint8_t ch)
{
	bool ret = true;
	
	switch(ch)
    19ec:	88 23       	and	r24, r24
    19ee:	19 f0       	breq	.+6      	; 0x19f6 <uartFlush+0xa>
    19f0:	81 30       	cpi	r24, 0x01	; 1
    19f2:	31 f0       	breq	.+12     	; 0x1a00 <uartFlush+0x14>
    19f4:	09 c0       	rjmp	.+18     	; 0x1a08 <uartFlush+0x1c>
	{
		case _DEF_UART0:
		qbufferFlush(&qbuffer[_DEF_UART0]);
    19f6:	83 eb       	ldi	r24, 0xB3	; 179
    19f8:	93 e0       	ldi	r25, 0x03	; 3
    19fa:	0e 94 65 03 	call	0x6ca	; 0x6ca <qbufferFlush>
		break;
    19fe:	04 c0       	rjmp	.+8      	; 0x1a08 <uartFlush+0x1c>
		case _DEF_UART1:
		qbufferFlush(&qbuffer[_DEF_UART1]);
    1a00:	81 ec       	ldi	r24, 0xC1	; 193
    1a02:	93 e0       	ldi	r25, 0x03	; 3
    1a04:	0e 94 65 03 	call	0x6ca	; 0x6ca <qbufferFlush>
		break;
	}
	
	return ret;
}
    1a08:	81 e0       	ldi	r24, 0x01	; 1
    1a0a:	08 95       	ret

00001a0c <UART_TxCpltCallback>:


void UART_TxCpltCallback(UART_HandleTypeDef *huart)
{
    1a0c:	08 95       	ret

00001a0e <UART_RxCpltCallback>:
	return;
}

void UART_RxCpltCallback(UART_HandleTypeDef *huart)
{
    1a0e:	fc 01       	movw	r30, r24
	switch(huart->USARTn)
    1a10:	80 81       	ld	r24, Z
    1a12:	88 23       	and	r24, r24
    1a14:	19 f0       	breq	.+6      	; 0x1a1c <UART_RxCpltCallback+0xe>
    1a16:	81 30       	cpi	r24, 0x01	; 1
    1a18:	61 f0       	breq	.+24     	; 0x1a32 <UART_RxCpltCallback+0x24>
    1a1a:	08 95       	ret
	{
		case USART0:
		qbufferWrite(&qbuffer[_DEF_UART0], huart->pRxBuffPtr, huart->RxXferSize);
    1a1c:	20 89       	ldd	r18, Z+16	; 0x10
    1a1e:	31 89       	ldd	r19, Z+17	; 0x11
    1a20:	40 e0       	ldi	r20, 0x00	; 0
    1a22:	50 e0       	ldi	r21, 0x00	; 0
    1a24:	64 85       	ldd	r22, Z+12	; 0x0c
    1a26:	75 85       	ldd	r23, Z+13	; 0x0d
    1a28:	83 eb       	ldi	r24, 0xB3	; 179
    1a2a:	93 e0       	ldi	r25, 0x03	; 3
    1a2c:	0c 94 41 02 	jmp	0x482	; 0x482 <qbufferWrite>
		//uartPrintf(_DEF_UART0, "Rx callback available: %d", uartAvailable(_DEF_UART0));
		//uartPrintf(_DEF_UART0, "Rx callback called\n");
		break;
    1a30:	08 95       	ret
		case USART1:
		qbufferWrite(&qbuffer[_DEF_UART1], huart->pRxBuffPtr, huart->RxXferSize);
    1a32:	20 89       	ldd	r18, Z+16	; 0x10
    1a34:	31 89       	ldd	r19, Z+17	; 0x11
    1a36:	40 e0       	ldi	r20, 0x00	; 0
    1a38:	50 e0       	ldi	r21, 0x00	; 0
    1a3a:	64 85       	ldd	r22, Z+12	; 0x0c
    1a3c:	75 85       	ldd	r23, Z+13	; 0x0d
    1a3e:	81 ec       	ldi	r24, 0xC1	; 193
    1a40:	93 e0       	ldi	r25, 0x03	; 3
    1a42:	0c 94 41 02 	jmp	0x482	; 0x482 <qbufferWrite>
    1a46:	08 95       	ret

00001a48 <hwInit>:
﻿#include "hw.h"

void hwInit(void)
{
	bspInit();
    1a48:	0e 94 2f 02 	call	0x45e	; 0x45e <bspInit>
	gpioInit();
    1a4c:	ac dc       	rcall	.-1704   	; 0x13a6 <gpioInit>
	uartInit();
    1a4e:	f6 de       	rcall	.-532    	; 0x183c <uartInit>
    1a50:	0e 94 6f 03 	call	0x6de	; 0x6de <ctcInit>
	//timerInit();
	//a4988Init();
	ctcInit();
	pwmInit();
    1a54:	df dc       	rcall	.-1602   	; 0x1414 <pwmInit>
	motorInit();
    1a56:	a0 d9       	rcall	.-3264   	; 0xd98 <motorInit>
    1a58:	55 cd       	rjmp	.-1366   	; 0x1504 <rosServerInit>
	rosServerInit();
    1a5a:	08 95       	ret

00001a5c <GPIO_Init>:
    1a5c:	90 e0       	ldi	r25, 0x00	; 0
    1a5e:	db 01       	movw	r26, r22
	GPIO_PinState ret = 0x00;
	GPIO_TypeDef *gpio = &GPIO_descripter[port];

	ret = READB(*(gpio->PINn), pin);
	return ret;
}
    1a60:	11 96       	adiw	r26, 0x01	; 1
    1a62:	2c 91       	ld	r18, X
    1a64:	11 97       	sbiw	r26, 0x01	; 1
    1a66:	21 11       	cpse	r18, r1
    1a68:	19 c0       	rjmp	.+50     	; 0x1a9c <GPIO_Init+0x40>
    1a6a:	fc 01       	movw	r30, r24
    1a6c:	ee 0f       	add	r30, r30
    1a6e:	ff 1f       	adc	r31, r31
    1a70:	e8 0f       	add	r30, r24
    1a72:	f9 1f       	adc	r31, r25
    1a74:	ee 0f       	add	r30, r30
    1a76:	ff 1f       	adc	r31, r31
    1a78:	e2 5e       	subi	r30, 0xE2	; 226
    1a7a:	fe 4f       	sbci	r31, 0xFE	; 254
    1a7c:	01 90       	ld	r0, Z+
    1a7e:	f0 81       	ld	r31, Z
    1a80:	e0 2d       	mov	r30, r0
    1a82:	20 81       	ld	r18, Z
    1a84:	81 e0       	ldi	r24, 0x01	; 1
    1a86:	90 e0       	ldi	r25, 0x00	; 0
    1a88:	0c 90       	ld	r0, X
    1a8a:	02 c0       	rjmp	.+4      	; 0x1a90 <GPIO_Init+0x34>
    1a8c:	88 0f       	add	r24, r24
    1a8e:	99 1f       	adc	r25, r25
    1a90:	0a 94       	dec	r0
    1a92:	e2 f7       	brpl	.-8      	; 0x1a8c <GPIO_Init+0x30>
    1a94:	80 95       	com	r24
    1a96:	82 23       	and	r24, r18
    1a98:	80 83       	st	Z, r24
    1a9a:	08 95       	ret
    1a9c:	21 30       	cpi	r18, 0x01	; 1
    1a9e:	c1 f4       	brne	.+48     	; 0x1ad0 <GPIO_Init+0x74>
    1aa0:	fc 01       	movw	r30, r24
    1aa2:	ee 0f       	add	r30, r30
    1aa4:	ff 1f       	adc	r31, r31
    1aa6:	e8 0f       	add	r30, r24
    1aa8:	f9 1f       	adc	r31, r25
    1aaa:	ee 0f       	add	r30, r30
    1aac:	ff 1f       	adc	r31, r31
    1aae:	e2 5e       	subi	r30, 0xE2	; 226
    1ab0:	fe 4f       	sbci	r31, 0xFE	; 254
    1ab2:	01 90       	ld	r0, Z+
    1ab4:	f0 81       	ld	r31, Z
    1ab6:	e0 2d       	mov	r30, r0
    1ab8:	20 81       	ld	r18, Z
    1aba:	81 e0       	ldi	r24, 0x01	; 1
    1abc:	90 e0       	ldi	r25, 0x00	; 0
    1abe:	db 01       	movw	r26, r22
    1ac0:	0c 90       	ld	r0, X
    1ac2:	02 c0       	rjmp	.+4      	; 0x1ac8 <GPIO_Init+0x6c>
    1ac4:	88 0f       	add	r24, r24
    1ac6:	99 1f       	adc	r25, r25
    1ac8:	0a 94       	dec	r0
    1aca:	e2 f7       	brpl	.-8      	; 0x1ac4 <GPIO_Init+0x68>
    1acc:	82 2b       	or	r24, r18
    1ace:	80 83       	st	Z, r24
    1ad0:	08 95       	ret

00001ad2 <GPIO_WritePin>:

void GPIO_WritePin(uint8_t port, uint8_t pin, GPIO_PinState pinState)
{
	GPIO_TypeDef *gpio = &GPIO_descripter[port];
    1ad2:	90 e0       	ldi	r25, 0x00	; 0
	
	if(pinState == PIN_RESET)
    1ad4:	41 11       	cpse	r20, r1
    1ad6:	18 c0       	rjmp	.+48     	; 0x1b08 <GPIO_WritePin+0x36>
	{
		CLRB(*(gpio->PORTn), pin);
    1ad8:	fc 01       	movw	r30, r24
    1ada:	ee 0f       	add	r30, r30
    1adc:	ff 1f       	adc	r31, r31
    1ade:	e8 0f       	add	r30, r24
    1ae0:	f9 1f       	adc	r31, r25
    1ae2:	ee 0f       	add	r30, r30
    1ae4:	ff 1f       	adc	r31, r31
    1ae6:	e2 5e       	subi	r30, 0xE2	; 226
    1ae8:	fe 4f       	sbci	r31, 0xFE	; 254
    1aea:	02 80       	ldd	r0, Z+2	; 0x02
    1aec:	f3 81       	ldd	r31, Z+3	; 0x03
    1aee:	e0 2d       	mov	r30, r0
    1af0:	20 81       	ld	r18, Z
    1af2:	81 e0       	ldi	r24, 0x01	; 1
    1af4:	90 e0       	ldi	r25, 0x00	; 0
    1af6:	02 c0       	rjmp	.+4      	; 0x1afc <GPIO_WritePin+0x2a>
    1af8:	88 0f       	add	r24, r24
    1afa:	99 1f       	adc	r25, r25
    1afc:	6a 95       	dec	r22
    1afe:	e2 f7       	brpl	.-8      	; 0x1af8 <GPIO_WritePin+0x26>
    1b00:	80 95       	com	r24
    1b02:	82 23       	and	r24, r18
    1b04:	80 83       	st	Z, r24
    1b06:	08 95       	ret
	}
	else if(pinState == PIN_SET)
    1b08:	41 30       	cpi	r20, 0x01	; 1
    1b0a:	b1 f4       	brne	.+44     	; 0x1b38 <GPIO_WritePin+0x66>
	{
		SETB(*(gpio->PORTn), pin);
    1b0c:	fc 01       	movw	r30, r24
    1b0e:	ee 0f       	add	r30, r30
    1b10:	ff 1f       	adc	r31, r31
    1b12:	e8 0f       	add	r30, r24
    1b14:	f9 1f       	adc	r31, r25
    1b16:	ee 0f       	add	r30, r30
    1b18:	ff 1f       	adc	r31, r31
    1b1a:	e2 5e       	subi	r30, 0xE2	; 226
    1b1c:	fe 4f       	sbci	r31, 0xFE	; 254
    1b1e:	02 80       	ldd	r0, Z+2	; 0x02
    1b20:	f3 81       	ldd	r31, Z+3	; 0x03
    1b22:	e0 2d       	mov	r30, r0
    1b24:	20 81       	ld	r18, Z
    1b26:	81 e0       	ldi	r24, 0x01	; 1
    1b28:	90 e0       	ldi	r25, 0x00	; 0
    1b2a:	02 c0       	rjmp	.+4      	; 0x1b30 <GPIO_WritePin+0x5e>
    1b2c:	88 0f       	add	r24, r24
    1b2e:	99 1f       	adc	r25, r25
    1b30:	6a 95       	dec	r22
    1b32:	e2 f7       	brpl	.-8      	; 0x1b2c <GPIO_WritePin+0x5a>
    1b34:	82 2b       	or	r24, r18
    1b36:	80 83       	st	Z, r24
    1b38:	08 95       	ret

00001b3a <TIM8_Base_Init>:
{
	TIM2_OVF_ElapsedCallback(htim);
}
void TIM3_OVF_IRQHandler(TIM16_HandleTypeDef *htim)
{
	TIM3_OVF_ElapsedCallback(htim);
    1b3a:	fc 01       	movw	r30, r24
    1b3c:	80 81       	ld	r24, Z
    1b3e:	88 23       	and	r24, r24
    1b40:	09 f4       	brne	.+2      	; 0x1b44 <TIM8_Base_Init+0xa>
    1b42:	48 c0       	rjmp	.+144    	; 0x1bd4 <TIM8_Base_Init+0x9a>
    1b44:	82 30       	cpi	r24, 0x02	; 2
    1b46:	e9 f1       	breq	.+122    	; 0x1bc2 <TIM8_Base_Init+0x88>
    1b48:	38 c0       	rjmp	.+112    	; 0x1bba <TIM8_Base_Init+0x80>
    1b4a:	81 81       	ldd	r24, Z+1	; 0x01
    1b4c:	81 30       	cpi	r24, 0x01	; 1
    1b4e:	19 f0       	breq	.+6      	; 0x1b56 <TIM8_Base_Init+0x1c>
    1b50:	82 30       	cpi	r24, 0x02	; 2
    1b52:	d1 f0       	breq	.+52     	; 0x1b88 <TIM8_Base_Init+0x4e>
    1b54:	34 c0       	rjmp	.+104    	; 0x1bbe <TIM8_Base_Init+0x84>
    1b56:	e4 e7       	ldi	r30, 0x74	; 116
    1b58:	f1 e0       	ldi	r31, 0x01	; 1
    1b5a:	a0 85       	ldd	r26, Z+8	; 0x08
    1b5c:	b1 85       	ldd	r27, Z+9	; 0x09
    1b5e:	8c 91       	ld	r24, X
    1b60:	88 7f       	andi	r24, 0xF8	; 248
    1b62:	8c 93       	st	X, r24
    1b64:	a0 85       	ldd	r26, Z+8	; 0x08
    1b66:	b1 85       	ldd	r27, Z+9	; 0x09
    1b68:	8c 91       	ld	r24, X
    1b6a:	84 60       	ori	r24, 0x04	; 4
    1b6c:	8c 93       	st	X, r24
    1b6e:	a0 85       	ldd	r26, Z+8	; 0x08
    1b70:	b1 85       	ldd	r27, Z+9	; 0x09
    1b72:	8c 91       	ld	r24, X
    1b74:	82 60       	ori	r24, 0x02	; 2
    1b76:	8c 93       	st	X, r24
    1b78:	00 84       	ldd	r0, Z+8	; 0x08
    1b7a:	f1 85       	ldd	r31, Z+9	; 0x09
    1b7c:	e0 2d       	mov	r30, r0
    1b7e:	80 81       	ld	r24, Z
    1b80:	8e 7f       	andi	r24, 0xFE	; 254
    1b82:	80 83       	st	Z, r24
    1b84:	80 e0       	ldi	r24, 0x00	; 0
    1b86:	08 95       	ret
    1b88:	e4 e7       	ldi	r30, 0x74	; 116
    1b8a:	f1 e0       	ldi	r31, 0x01	; 1
    1b8c:	a0 85       	ldd	r26, Z+8	; 0x08
    1b8e:	b1 85       	ldd	r27, Z+9	; 0x09
    1b90:	8c 91       	ld	r24, X
    1b92:	88 7f       	andi	r24, 0xF8	; 248
    1b94:	8c 93       	st	X, r24
    1b96:	a0 85       	ldd	r26, Z+8	; 0x08
    1b98:	b1 85       	ldd	r27, Z+9	; 0x09
    1b9a:	8c 91       	ld	r24, X
    1b9c:	84 60       	ori	r24, 0x04	; 4
    1b9e:	8c 93       	st	X, r24
    1ba0:	a0 85       	ldd	r26, Z+8	; 0x08
    1ba2:	b1 85       	ldd	r27, Z+9	; 0x09
    1ba4:	8c 91       	ld	r24, X
    1ba6:	82 60       	ori	r24, 0x02	; 2
    1ba8:	8c 93       	st	X, r24
    1baa:	00 84       	ldd	r0, Z+8	; 0x08
    1bac:	f1 85       	ldd	r31, Z+9	; 0x09
    1bae:	e0 2d       	mov	r30, r0
    1bb0:	80 81       	ld	r24, Z
    1bb2:	81 60       	ori	r24, 0x01	; 1
    1bb4:	80 83       	st	Z, r24
    1bb6:	80 e0       	ldi	r24, 0x00	; 0
    1bb8:	08 95       	ret
    1bba:	81 e0       	ldi	r24, 0x01	; 1
    1bbc:	08 95       	ret
    1bbe:	80 e0       	ldi	r24, 0x00	; 0
    1bc0:	08 95       	ret
    1bc2:	2c e7       	ldi	r18, 0x7C	; 124
    1bc4:	31 e0       	ldi	r19, 0x01	; 1
    1bc6:	35 83       	std	Z+5, r19	; 0x05
    1bc8:	24 83       	std	Z+4, r18	; 0x04
    1bca:	82 30       	cpi	r24, 0x02	; 2
    1bcc:	09 f4       	brne	.+2      	; 0x1bd0 <TIM8_Base_Init+0x96>
    1bce:	bd cf       	rjmp	.-134    	; 0x1b4a <TIM8_Base_Init+0x10>
    1bd0:	80 e0       	ldi	r24, 0x00	; 0
    1bd2:	08 95       	ret
    1bd4:	84 e7       	ldi	r24, 0x74	; 116
    1bd6:	91 e0       	ldi	r25, 0x01	; 1
    1bd8:	95 83       	std	Z+5, r25	; 0x05
    1bda:	84 83       	std	Z+4, r24	; 0x04
    1bdc:	80 e0       	ldi	r24, 0x00	; 0
    1bde:	08 95       	ret

00001be0 <TIM8_OC_Init>:
    1be0:	0f 93       	push	r16
    1be2:	1f 93       	push	r17
    1be4:	cf 93       	push	r28
    1be6:	df 93       	push	r29
    1be8:	dc 01       	movw	r26, r24
    1bea:	2c 91       	ld	r18, X
    1bec:	22 23       	and	r18, r18
    1bee:	09 f4       	brne	.+2      	; 0x1bf2 <TIM8_OC_Init+0x12>
    1bf0:	7f c0       	rjmp	.+254    	; 0x1cf0 <TIM8_OC_Init+0x110>
    1bf2:	22 30       	cpi	r18, 0x02	; 2
    1bf4:	09 f0       	breq	.+2      	; 0x1bf8 <TIM8_OC_Init+0x18>
    1bf6:	7a c0       	rjmp	.+244    	; 0x1cec <TIM8_OC_Init+0x10c>
    1bf8:	0c e7       	ldi	r16, 0x7C	; 124
    1bfa:	11 e0       	ldi	r17, 0x01	; 1
    1bfc:	7b c0       	rjmp	.+246    	; 0x1cf4 <TIM8_OC_Init+0x114>
    1bfe:	d8 01       	movw	r26, r16
    1c00:	ed 91       	ld	r30, X+
    1c02:	fc 91       	ld	r31, X
    1c04:	11 97       	sbiw	r26, 0x01	; 1
    1c06:	80 81       	ld	r24, Z
    1c08:	8f 7b       	andi	r24, 0xBF	; 191
    1c0a:	80 83       	st	Z, r24
    1c0c:	ed 91       	ld	r30, X+
    1c0e:	fc 91       	ld	r31, X
    1c10:	80 81       	ld	r24, Z
    1c12:	87 7f       	andi	r24, 0xF7	; 247
    1c14:	80 83       	st	Z, r24
    1c16:	0c c0       	rjmp	.+24     	; 0x1c30 <TIM8_OC_Init+0x50>
    1c18:	d8 01       	movw	r26, r16
    1c1a:	ed 91       	ld	r30, X+
    1c1c:	fc 91       	ld	r31, X
    1c1e:	11 97       	sbiw	r26, 0x01	; 1
    1c20:	80 81       	ld	r24, Z
    1c22:	8f 7b       	andi	r24, 0xBF	; 191
    1c24:	80 83       	st	Z, r24
    1c26:	ed 91       	ld	r30, X+
    1c28:	fc 91       	ld	r31, X
    1c2a:	80 81       	ld	r24, Z
    1c2c:	88 60       	ori	r24, 0x08	; 8
    1c2e:	80 83       	st	Z, r24
    1c30:	89 81       	ldd	r24, Y+1	; 0x01
    1c32:	88 23       	and	r24, r24
    1c34:	19 f0       	breq	.+6      	; 0x1c3c <TIM8_OC_Init+0x5c>
    1c36:	81 30       	cpi	r24, 0x01	; 1
    1c38:	41 f0       	breq	.+16     	; 0x1c4a <TIM8_OC_Init+0x6a>
    1c3a:	0d c0       	rjmp	.+26     	; 0x1c56 <TIM8_OC_Init+0x76>
    1c3c:	d8 01       	movw	r26, r16
    1c3e:	ed 91       	ld	r30, X+
    1c40:	fc 91       	ld	r31, X
    1c42:	80 81       	ld	r24, Z
    1c44:	8f 77       	andi	r24, 0x7F	; 127
    1c46:	80 83       	st	Z, r24
    1c48:	06 c0       	rjmp	.+12     	; 0x1c56 <TIM8_OC_Init+0x76>
    1c4a:	d8 01       	movw	r26, r16
    1c4c:	ed 91       	ld	r30, X+
    1c4e:	fc 91       	ld	r31, X
    1c50:	80 81       	ld	r24, Z
    1c52:	80 68       	ori	r24, 0x80	; 128
    1c54:	80 83       	st	Z, r24
    1c56:	8a 81       	ldd	r24, Y+2	; 0x02
    1c58:	81 30       	cpi	r24, 0x01	; 1
    1c5a:	99 f0       	breq	.+38     	; 0x1c82 <TIM8_OC_Init+0xa2>
    1c5c:	28 f0       	brcs	.+10     	; 0x1c68 <TIM8_OC_Init+0x88>
    1c5e:	82 30       	cpi	r24, 0x02	; 2
    1c60:	e9 f0       	breq	.+58     	; 0x1c9c <TIM8_OC_Init+0xbc>
    1c62:	83 30       	cpi	r24, 0x03	; 3
    1c64:	41 f1       	breq	.+80     	; 0x1cb6 <TIM8_OC_Init+0xd6>
    1c66:	33 c0       	rjmp	.+102    	; 0x1cce <TIM8_OC_Init+0xee>
    1c68:	d8 01       	movw	r26, r16
    1c6a:	ed 91       	ld	r30, X+
    1c6c:	fc 91       	ld	r31, X
    1c6e:	11 97       	sbiw	r26, 0x01	; 1
    1c70:	80 81       	ld	r24, Z
    1c72:	8f 7e       	andi	r24, 0xEF	; 239
    1c74:	80 83       	st	Z, r24
    1c76:	ed 91       	ld	r30, X+
    1c78:	fc 91       	ld	r31, X
    1c7a:	80 81       	ld	r24, Z
    1c7c:	8f 7d       	andi	r24, 0xDF	; 223
    1c7e:	80 83       	st	Z, r24
    1c80:	26 c0       	rjmp	.+76     	; 0x1cce <TIM8_OC_Init+0xee>
    1c82:	d8 01       	movw	r26, r16
    1c84:	ed 91       	ld	r30, X+
    1c86:	fc 91       	ld	r31, X
    1c88:	11 97       	sbiw	r26, 0x01	; 1
    1c8a:	80 81       	ld	r24, Z
    1c8c:	80 61       	ori	r24, 0x10	; 16
    1c8e:	80 83       	st	Z, r24
    1c90:	ed 91       	ld	r30, X+
    1c92:	fc 91       	ld	r31, X
    1c94:	80 81       	ld	r24, Z
    1c96:	8f 7d       	andi	r24, 0xDF	; 223
    1c98:	80 83       	st	Z, r24
    1c9a:	19 c0       	rjmp	.+50     	; 0x1cce <TIM8_OC_Init+0xee>
    1c9c:	d8 01       	movw	r26, r16
    1c9e:	ed 91       	ld	r30, X+
    1ca0:	fc 91       	ld	r31, X
    1ca2:	11 97       	sbiw	r26, 0x01	; 1
    1ca4:	80 81       	ld	r24, Z
    1ca6:	8f 7e       	andi	r24, 0xEF	; 239
    1ca8:	80 83       	st	Z, r24
    1caa:	ed 91       	ld	r30, X+
    1cac:	fc 91       	ld	r31, X
    1cae:	80 81       	ld	r24, Z
    1cb0:	80 62       	ori	r24, 0x20	; 32
    1cb2:	80 83       	st	Z, r24
    1cb4:	0c c0       	rjmp	.+24     	; 0x1cce <TIM8_OC_Init+0xee>
    1cb6:	d8 01       	movw	r26, r16
    1cb8:	ed 91       	ld	r30, X+
    1cba:	fc 91       	ld	r31, X
    1cbc:	11 97       	sbiw	r26, 0x01	; 1
    1cbe:	80 81       	ld	r24, Z
    1cc0:	80 61       	ori	r24, 0x10	; 16
    1cc2:	80 83       	st	Z, r24
    1cc4:	ed 91       	ld	r30, X+
    1cc6:	fc 91       	ld	r31, X
    1cc8:	80 81       	ld	r24, Z
    1cca:	80 62       	ori	r24, 0x20	; 32
    1ccc:	80 83       	st	Z, r24
    1cce:	d8 01       	movw	r26, r16
    1cd0:	14 96       	adiw	r26, 0x04	; 4
    1cd2:	ed 91       	ld	r30, X+
    1cd4:	fc 91       	ld	r31, X
    1cd6:	15 97       	sbiw	r26, 0x05	; 5
    1cd8:	8c 81       	ldd	r24, Y+4	; 0x04
    1cda:	80 83       	st	Z, r24
    1cdc:	12 96       	adiw	r26, 0x02	; 2
    1cde:	ed 91       	ld	r30, X+
    1ce0:	fc 91       	ld	r31, X
    1ce2:	13 97       	sbiw	r26, 0x03	; 3
    1ce4:	8b 81       	ldd	r24, Y+3	; 0x03
    1ce6:	80 83       	st	Z, r24
    1ce8:	80 e0       	ldi	r24, 0x00	; 0
    1cea:	0e c0       	rjmp	.+28     	; 0x1d08 <TIM8_OC_Init+0x128>
    1cec:	81 e0       	ldi	r24, 0x01	; 1
    1cee:	0c c0       	rjmp	.+24     	; 0x1d08 <TIM8_OC_Init+0x128>
    1cf0:	04 e7       	ldi	r16, 0x74	; 116
    1cf2:	11 e0       	ldi	r17, 0x01	; 1
    1cf4:	eb 01       	movw	r28, r22
    1cf6:	21 df       	rcall	.-446    	; 0x1b3a <TIM8_Base_Init>
    1cf8:	88 81       	ld	r24, Y
    1cfa:	88 23       	and	r24, r24
    1cfc:	09 f4       	brne	.+2      	; 0x1d00 <TIM8_OC_Init+0x120>
    1cfe:	7f cf       	rjmp	.-258    	; 0x1bfe <TIM8_OC_Init+0x1e>
    1d00:	81 30       	cpi	r24, 0x01	; 1
    1d02:	09 f4       	brne	.+2      	; 0x1d06 <TIM8_OC_Init+0x126>
    1d04:	89 cf       	rjmp	.-238    	; 0x1c18 <TIM8_OC_Init+0x38>
    1d06:	94 cf       	rjmp	.-216    	; 0x1c30 <TIM8_OC_Init+0x50>
    1d08:	df 91       	pop	r29
    1d0a:	cf 91       	pop	r28
    1d0c:	1f 91       	pop	r17
    1d0e:	0f 91       	pop	r16
    1d10:	08 95       	ret

00001d12 <TIM8_OC_Stop>:
    1d12:	fc 01       	movw	r30, r24
    1d14:	80 81       	ld	r24, Z
    1d16:	88 23       	and	r24, r24
    1d18:	39 f0       	breq	.+14     	; 0x1d28 <TIM8_OC_Stop+0x16>
    1d1a:	82 30       	cpi	r24, 0x02	; 2
    1d1c:	19 f4       	brne	.+6      	; 0x1d24 <TIM8_OC_Stop+0x12>
    1d1e:	ec e7       	ldi	r30, 0x7C	; 124
    1d20:	f1 e0       	ldi	r31, 0x01	; 1
    1d22:	04 c0       	rjmp	.+8      	; 0x1d2c <TIM8_OC_Stop+0x1a>
    1d24:	81 e0       	ldi	r24, 0x01	; 1
    1d26:	08 95       	ret
    1d28:	e4 e7       	ldi	r30, 0x74	; 116
    1d2a:	f1 e0       	ldi	r31, 0x01	; 1
    1d2c:	01 90       	ld	r0, Z+
    1d2e:	f0 81       	ld	r31, Z
    1d30:	e0 2d       	mov	r30, r0
    1d32:	80 81       	ld	r24, Z
    1d34:	88 7f       	andi	r24, 0xF8	; 248
    1d36:	80 83       	st	Z, r24
    1d38:	80 e0       	ldi	r24, 0x00	; 0
    1d3a:	08 95       	ret

00001d3c <TIM16_OC_Stop>:
    1d3c:	fc 01       	movw	r30, r24
    1d3e:	80 81       	ld	r24, Z
    1d40:	81 30       	cpi	r24, 0x01	; 1
    1d42:	39 f0       	breq	.+14     	; 0x1d52 <TIM16_OC_Stop+0x16>
    1d44:	83 30       	cpi	r24, 0x03	; 3
    1d46:	19 f4       	brne	.+6      	; 0x1d4e <TIM16_OC_Stop+0x12>
    1d48:	ee e5       	ldi	r30, 0x5E	; 94
    1d4a:	f1 e0       	ldi	r31, 0x01	; 1
    1d4c:	04 c0       	rjmp	.+8      	; 0x1d56 <TIM16_OC_Stop+0x1a>
    1d4e:	81 e0       	ldi	r24, 0x01	; 1
    1d50:	08 95       	ret
    1d52:	e8 e4       	ldi	r30, 0x48	; 72
    1d54:	f1 e0       	ldi	r31, 0x01	; 1
    1d56:	02 80       	ldd	r0, Z+2	; 0x02
    1d58:	f3 81       	ldd	r31, Z+3	; 0x03
    1d5a:	e0 2d       	mov	r30, r0
    1d5c:	80 81       	ld	r24, Z
    1d5e:	88 7f       	andi	r24, 0xF8	; 248
    1d60:	80 83       	st	Z, r24
    1d62:	80 e0       	ldi	r24, 0x00	; 0
    1d64:	08 95       	ret

00001d66 <TIM0_CLK_Configuration>:
    1d66:	dc 01       	movw	r26, r24
    1d68:	12 96       	adiw	r26, 0x02	; 2
    1d6a:	ec 91       	ld	r30, X
    1d6c:	8e 2f       	mov	r24, r30
    1d6e:	90 e0       	ldi	r25, 0x00	; 0
    1d70:	87 30       	cpi	r24, 0x07	; 7
    1d72:	91 05       	cpc	r25, r1
    1d74:	08 f0       	brcs	.+2      	; 0x1d78 <TIM0_CLK_Configuration+0x12>
    1d76:	88 c0       	rjmp	.+272    	; 0x1e88 <TIM0_CLK_Configuration+0x122>
    1d78:	fc 01       	movw	r30, r24
    1d7a:	e1 5b       	subi	r30, 0xB1	; 177
    1d7c:	ff 4f       	sbci	r31, 0xFF	; 255
    1d7e:	d0 c6       	rjmp	.+3488   	; 0x2b20 <__tablejump2__>
    1d80:	e4 e7       	ldi	r30, 0x74	; 116
    1d82:	f1 e0       	ldi	r31, 0x01	; 1
    1d84:	a0 81       	ld	r26, Z
    1d86:	b1 81       	ldd	r27, Z+1	; 0x01
    1d88:	8c 91       	ld	r24, X
    1d8a:	8b 7f       	andi	r24, 0xFB	; 251
    1d8c:	8c 93       	st	X, r24
    1d8e:	a0 81       	ld	r26, Z
    1d90:	b1 81       	ldd	r27, Z+1	; 0x01
    1d92:	8c 91       	ld	r24, X
    1d94:	8d 7f       	andi	r24, 0xFD	; 253
    1d96:	8c 93       	st	X, r24
    1d98:	01 90       	ld	r0, Z+
    1d9a:	f0 81       	ld	r31, Z
    1d9c:	e0 2d       	mov	r30, r0
    1d9e:	80 81       	ld	r24, Z
    1da0:	81 60       	ori	r24, 0x01	; 1
    1da2:	80 83       	st	Z, r24
    1da4:	08 95       	ret
    1da6:	e4 e7       	ldi	r30, 0x74	; 116
    1da8:	f1 e0       	ldi	r31, 0x01	; 1
    1daa:	a0 81       	ld	r26, Z
    1dac:	b1 81       	ldd	r27, Z+1	; 0x01
    1dae:	8c 91       	ld	r24, X
    1db0:	8b 7f       	andi	r24, 0xFB	; 251
    1db2:	8c 93       	st	X, r24
    1db4:	a0 81       	ld	r26, Z
    1db6:	b1 81       	ldd	r27, Z+1	; 0x01
    1db8:	8c 91       	ld	r24, X
    1dba:	82 60       	ori	r24, 0x02	; 2
    1dbc:	8c 93       	st	X, r24
    1dbe:	01 90       	ld	r0, Z+
    1dc0:	f0 81       	ld	r31, Z
    1dc2:	e0 2d       	mov	r30, r0
    1dc4:	80 81       	ld	r24, Z
    1dc6:	8e 7f       	andi	r24, 0xFE	; 254
    1dc8:	80 83       	st	Z, r24
    1dca:	08 95       	ret
    1dcc:	e4 e7       	ldi	r30, 0x74	; 116
    1dce:	f1 e0       	ldi	r31, 0x01	; 1
    1dd0:	a0 81       	ld	r26, Z
    1dd2:	b1 81       	ldd	r27, Z+1	; 0x01
    1dd4:	8c 91       	ld	r24, X
    1dd6:	8b 7f       	andi	r24, 0xFB	; 251
    1dd8:	8c 93       	st	X, r24
    1dda:	a0 81       	ld	r26, Z
    1ddc:	b1 81       	ldd	r27, Z+1	; 0x01
    1dde:	8c 91       	ld	r24, X
    1de0:	82 60       	ori	r24, 0x02	; 2
    1de2:	8c 93       	st	X, r24
    1de4:	01 90       	ld	r0, Z+
    1de6:	f0 81       	ld	r31, Z
    1de8:	e0 2d       	mov	r30, r0
    1dea:	80 81       	ld	r24, Z
    1dec:	81 60       	ori	r24, 0x01	; 1
    1dee:	80 83       	st	Z, r24
    1df0:	08 95       	ret
    1df2:	e4 e7       	ldi	r30, 0x74	; 116
    1df4:	f1 e0       	ldi	r31, 0x01	; 1
    1df6:	a0 81       	ld	r26, Z
    1df8:	b1 81       	ldd	r27, Z+1	; 0x01
    1dfa:	8c 91       	ld	r24, X
    1dfc:	84 60       	ori	r24, 0x04	; 4
    1dfe:	8c 93       	st	X, r24
    1e00:	a0 81       	ld	r26, Z
    1e02:	b1 81       	ldd	r27, Z+1	; 0x01
    1e04:	8c 91       	ld	r24, X
    1e06:	8d 7f       	andi	r24, 0xFD	; 253
    1e08:	8c 93       	st	X, r24
    1e0a:	01 90       	ld	r0, Z+
    1e0c:	f0 81       	ld	r31, Z
    1e0e:	e0 2d       	mov	r30, r0
    1e10:	80 81       	ld	r24, Z
    1e12:	8e 7f       	andi	r24, 0xFE	; 254
    1e14:	80 83       	st	Z, r24
    1e16:	08 95       	ret
    1e18:	e4 e7       	ldi	r30, 0x74	; 116
    1e1a:	f1 e0       	ldi	r31, 0x01	; 1
    1e1c:	a0 81       	ld	r26, Z
    1e1e:	b1 81       	ldd	r27, Z+1	; 0x01
    1e20:	8c 91       	ld	r24, X
    1e22:	84 60       	ori	r24, 0x04	; 4
    1e24:	8c 93       	st	X, r24
    1e26:	a0 81       	ld	r26, Z
    1e28:	b1 81       	ldd	r27, Z+1	; 0x01
    1e2a:	8c 91       	ld	r24, X
    1e2c:	8d 7f       	andi	r24, 0xFD	; 253
    1e2e:	8c 93       	st	X, r24
    1e30:	01 90       	ld	r0, Z+
    1e32:	f0 81       	ld	r31, Z
    1e34:	e0 2d       	mov	r30, r0
    1e36:	80 81       	ld	r24, Z
    1e38:	81 60       	ori	r24, 0x01	; 1
    1e3a:	80 83       	st	Z, r24
    1e3c:	08 95       	ret
    1e3e:	e4 e7       	ldi	r30, 0x74	; 116
    1e40:	f1 e0       	ldi	r31, 0x01	; 1
    1e42:	a0 81       	ld	r26, Z
    1e44:	b1 81       	ldd	r27, Z+1	; 0x01
    1e46:	8c 91       	ld	r24, X
    1e48:	84 60       	ori	r24, 0x04	; 4
    1e4a:	8c 93       	st	X, r24
    1e4c:	a0 81       	ld	r26, Z
    1e4e:	b1 81       	ldd	r27, Z+1	; 0x01
    1e50:	8c 91       	ld	r24, X
    1e52:	82 60       	ori	r24, 0x02	; 2
    1e54:	8c 93       	st	X, r24
    1e56:	01 90       	ld	r0, Z+
    1e58:	f0 81       	ld	r31, Z
    1e5a:	e0 2d       	mov	r30, r0
    1e5c:	80 81       	ld	r24, Z
    1e5e:	8e 7f       	andi	r24, 0xFE	; 254
    1e60:	80 83       	st	Z, r24
    1e62:	08 95       	ret
    1e64:	e4 e7       	ldi	r30, 0x74	; 116
    1e66:	f1 e0       	ldi	r31, 0x01	; 1
    1e68:	a0 81       	ld	r26, Z
    1e6a:	b1 81       	ldd	r27, Z+1	; 0x01
    1e6c:	8c 91       	ld	r24, X
    1e6e:	84 60       	ori	r24, 0x04	; 4
    1e70:	8c 93       	st	X, r24
    1e72:	a0 81       	ld	r26, Z
    1e74:	b1 81       	ldd	r27, Z+1	; 0x01
    1e76:	8c 91       	ld	r24, X
    1e78:	82 60       	ori	r24, 0x02	; 2
    1e7a:	8c 93       	st	X, r24
    1e7c:	01 90       	ld	r0, Z+
    1e7e:	f0 81       	ld	r31, Z
    1e80:	e0 2d       	mov	r30, r0
    1e82:	80 81       	ld	r24, Z
    1e84:	81 60       	ori	r24, 0x01	; 1
    1e86:	80 83       	st	Z, r24
    1e88:	08 95       	ret

00001e8a <TIM2_CLK_Configuration>:
    1e8a:	e0 91 7c 01 	lds	r30, 0x017C	; 0x80017c <TIM8_descripter+0x8>
    1e8e:	f0 91 7d 01 	lds	r31, 0x017D	; 0x80017d <TIM8_descripter+0x9>
    1e92:	20 81       	ld	r18, Z
    1e94:	20 81       	ld	r18, Z
    1e96:	dc 01       	movw	r26, r24
    1e98:	12 96       	adiw	r26, 0x02	; 2
    1e9a:	8c 91       	ld	r24, X
    1e9c:	83 30       	cpi	r24, 0x03	; 3
    1e9e:	71 f1       	breq	.+92     	; 0x1efc <TIM2_CLK_Configuration+0x72>
    1ea0:	28 f4       	brcc	.+10     	; 0x1eac <TIM2_CLK_Configuration+0x22>
    1ea2:	88 23       	and	r24, r24
    1ea4:	49 f0       	breq	.+18     	; 0x1eb8 <TIM2_CLK_Configuration+0x2e>
    1ea6:	81 30       	cpi	r24, 0x01	; 1
    1ea8:	c1 f0       	breq	.+48     	; 0x1eda <TIM2_CLK_Configuration+0x50>
    1eaa:	08 95       	ret
    1eac:	85 30       	cpi	r24, 0x05	; 5
    1eae:	b9 f1       	breq	.+110    	; 0x1f1e <TIM2_CLK_Configuration+0x94>
    1eb0:	86 30       	cpi	r24, 0x06	; 6
    1eb2:	09 f4       	brne	.+2      	; 0x1eb6 <TIM2_CLK_Configuration+0x2c>
    1eb4:	45 c0       	rjmp	.+138    	; 0x1f40 <TIM2_CLK_Configuration+0xb6>
    1eb6:	08 95       	ret
    1eb8:	80 81       	ld	r24, Z
    1eba:	8b 7f       	andi	r24, 0xFB	; 251
    1ebc:	80 83       	st	Z, r24
    1ebe:	e4 e7       	ldi	r30, 0x74	; 116
    1ec0:	f1 e0       	ldi	r31, 0x01	; 1
    1ec2:	a0 85       	ldd	r26, Z+8	; 0x08
    1ec4:	b1 85       	ldd	r27, Z+9	; 0x09
    1ec6:	8c 91       	ld	r24, X
    1ec8:	8d 7f       	andi	r24, 0xFD	; 253
    1eca:	8c 93       	st	X, r24
    1ecc:	00 84       	ldd	r0, Z+8	; 0x08
    1ece:	f1 85       	ldd	r31, Z+9	; 0x09
    1ed0:	e0 2d       	mov	r30, r0
    1ed2:	80 81       	ld	r24, Z
    1ed4:	81 60       	ori	r24, 0x01	; 1
    1ed6:	80 83       	st	Z, r24
    1ed8:	08 95       	ret
    1eda:	80 81       	ld	r24, Z
    1edc:	8b 7f       	andi	r24, 0xFB	; 251
    1ede:	80 83       	st	Z, r24
    1ee0:	e4 e7       	ldi	r30, 0x74	; 116
    1ee2:	f1 e0       	ldi	r31, 0x01	; 1
    1ee4:	a0 85       	ldd	r26, Z+8	; 0x08
    1ee6:	b1 85       	ldd	r27, Z+9	; 0x09
    1ee8:	8c 91       	ld	r24, X
    1eea:	82 60       	ori	r24, 0x02	; 2
    1eec:	8c 93       	st	X, r24
    1eee:	00 84       	ldd	r0, Z+8	; 0x08
    1ef0:	f1 85       	ldd	r31, Z+9	; 0x09
    1ef2:	e0 2d       	mov	r30, r0
    1ef4:	80 81       	ld	r24, Z
    1ef6:	8e 7f       	andi	r24, 0xFE	; 254
    1ef8:	80 83       	st	Z, r24
    1efa:	08 95       	ret
    1efc:	80 81       	ld	r24, Z
    1efe:	8b 7f       	andi	r24, 0xFB	; 251
    1f00:	80 83       	st	Z, r24
    1f02:	e4 e7       	ldi	r30, 0x74	; 116
    1f04:	f1 e0       	ldi	r31, 0x01	; 1
    1f06:	a0 85       	ldd	r26, Z+8	; 0x08
    1f08:	b1 85       	ldd	r27, Z+9	; 0x09
    1f0a:	8c 91       	ld	r24, X
    1f0c:	82 60       	ori	r24, 0x02	; 2
    1f0e:	8c 93       	st	X, r24
    1f10:	00 84       	ldd	r0, Z+8	; 0x08
    1f12:	f1 85       	ldd	r31, Z+9	; 0x09
    1f14:	e0 2d       	mov	r30, r0
    1f16:	80 81       	ld	r24, Z
    1f18:	81 60       	ori	r24, 0x01	; 1
    1f1a:	80 83       	st	Z, r24
    1f1c:	08 95       	ret
    1f1e:	80 81       	ld	r24, Z
    1f20:	84 60       	ori	r24, 0x04	; 4
    1f22:	80 83       	st	Z, r24
    1f24:	e4 e7       	ldi	r30, 0x74	; 116
    1f26:	f1 e0       	ldi	r31, 0x01	; 1
    1f28:	a0 85       	ldd	r26, Z+8	; 0x08
    1f2a:	b1 85       	ldd	r27, Z+9	; 0x09
    1f2c:	8c 91       	ld	r24, X
    1f2e:	8d 7f       	andi	r24, 0xFD	; 253
    1f30:	8c 93       	st	X, r24
    1f32:	00 84       	ldd	r0, Z+8	; 0x08
    1f34:	f1 85       	ldd	r31, Z+9	; 0x09
    1f36:	e0 2d       	mov	r30, r0
    1f38:	80 81       	ld	r24, Z
    1f3a:	8e 7f       	andi	r24, 0xFE	; 254
    1f3c:	80 83       	st	Z, r24
    1f3e:	08 95       	ret
    1f40:	80 81       	ld	r24, Z
    1f42:	84 60       	ori	r24, 0x04	; 4
    1f44:	80 83       	st	Z, r24
    1f46:	e4 e7       	ldi	r30, 0x74	; 116
    1f48:	f1 e0       	ldi	r31, 0x01	; 1
    1f4a:	a0 85       	ldd	r26, Z+8	; 0x08
    1f4c:	b1 85       	ldd	r27, Z+9	; 0x09
    1f4e:	8c 91       	ld	r24, X
    1f50:	8d 7f       	andi	r24, 0xFD	; 253
    1f52:	8c 93       	st	X, r24
    1f54:	00 84       	ldd	r0, Z+8	; 0x08
    1f56:	f1 85       	ldd	r31, Z+9	; 0x09
    1f58:	e0 2d       	mov	r30, r0
    1f5a:	80 81       	ld	r24, Z
    1f5c:	81 60       	ori	r24, 0x01	; 1
    1f5e:	80 83       	st	Z, r24
    1f60:	08 95       	ret

00001f62 <TIM8_OC_Start>:
    1f62:	fc 01       	movw	r30, r24
    1f64:	20 81       	ld	r18, Z
    1f66:	22 23       	and	r18, r18
    1f68:	89 f0       	breq	.+34     	; 0x1f8c <TIM8_OC_Start+0x2a>
    1f6a:	22 30       	cpi	r18, 0x02	; 2
    1f6c:	59 f4       	brne	.+22     	; 0x1f84 <TIM8_OC_Start+0x22>
    1f6e:	ac e7       	ldi	r26, 0x7C	; 124
    1f70:	b1 e0       	ldi	r27, 0x01	; 1
    1f72:	0e c0       	rjmp	.+28     	; 0x1f90 <TIM8_OC_Start+0x2e>
    1f74:	cf 01       	movw	r24, r30
    1f76:	f7 de       	rcall	.-530    	; 0x1d66 <TIM0_CLK_Configuration>
    1f78:	80 e0       	ldi	r24, 0x00	; 0
    1f7a:	08 95       	ret
    1f7c:	cf 01       	movw	r24, r30
    1f7e:	85 df       	rcall	.-246    	; 0x1e8a <TIM2_CLK_Configuration>
    1f80:	80 e0       	ldi	r24, 0x00	; 0
    1f82:	08 95       	ret
    1f84:	81 e0       	ldi	r24, 0x01	; 1
    1f86:	08 95       	ret
    1f88:	80 e0       	ldi	r24, 0x00	; 0
    1f8a:	08 95       	ret
    1f8c:	a4 e7       	ldi	r26, 0x74	; 116
    1f8e:	b1 e0       	ldi	r27, 0x01	; 1
    1f90:	fc 01       	movw	r30, r24
    1f92:	12 96       	adiw	r26, 0x02	; 2
    1f94:	0d 90       	ld	r0, X+
    1f96:	bc 91       	ld	r27, X
    1f98:	a0 2d       	mov	r26, r0
    1f9a:	83 81       	ldd	r24, Z+3	; 0x03
    1f9c:	8c 93       	st	X, r24
    1f9e:	80 81       	ld	r24, Z
    1fa0:	88 23       	and	r24, r24
    1fa2:	41 f3       	breq	.-48     	; 0x1f74 <TIM8_OC_Start+0x12>
    1fa4:	82 30       	cpi	r24, 0x02	; 2
    1fa6:	51 f3       	breq	.-44     	; 0x1f7c <TIM8_OC_Start+0x1a>
    1fa8:	ef cf       	rjmp	.-34     	; 0x1f88 <TIM8_OC_Start+0x26>

00001faa <TIM1_CLK_Configuration>:
    1faa:	e0 91 4a 01 	lds	r30, 0x014A	; 0x80014a <TIM16_descripter+0x2>
    1fae:	f0 91 4b 01 	lds	r31, 0x014B	; 0x80014b <TIM16_descripter+0x3>
    1fb2:	20 81       	ld	r18, Z
    1fb4:	20 81       	ld	r18, Z
    1fb6:	dc 01       	movw	r26, r24
    1fb8:	12 96       	adiw	r26, 0x02	; 2
    1fba:	8c 91       	ld	r24, X
    1fbc:	83 30       	cpi	r24, 0x03	; 3
    1fbe:	71 f1       	breq	.+92     	; 0x201c <TIM1_CLK_Configuration+0x72>
    1fc0:	28 f4       	brcc	.+10     	; 0x1fcc <TIM1_CLK_Configuration+0x22>
    1fc2:	88 23       	and	r24, r24
    1fc4:	49 f0       	breq	.+18     	; 0x1fd8 <TIM1_CLK_Configuration+0x2e>
    1fc6:	81 30       	cpi	r24, 0x01	; 1
    1fc8:	c1 f0       	breq	.+48     	; 0x1ffa <TIM1_CLK_Configuration+0x50>
    1fca:	08 95       	ret
    1fcc:	85 30       	cpi	r24, 0x05	; 5
    1fce:	b9 f1       	breq	.+110    	; 0x203e <TIM1_CLK_Configuration+0x94>
    1fd0:	86 30       	cpi	r24, 0x06	; 6
    1fd2:	09 f4       	brne	.+2      	; 0x1fd6 <TIM1_CLK_Configuration+0x2c>
    1fd4:	45 c0       	rjmp	.+138    	; 0x2060 <TIM1_CLK_Configuration+0xb6>
    1fd6:	08 95       	ret
    1fd8:	80 81       	ld	r24, Z
    1fda:	8b 7f       	andi	r24, 0xFB	; 251
    1fdc:	80 83       	st	Z, r24
    1fde:	e8 e4       	ldi	r30, 0x48	; 72
    1fe0:	f1 e0       	ldi	r31, 0x01	; 1
    1fe2:	a2 81       	ldd	r26, Z+2	; 0x02
    1fe4:	b3 81       	ldd	r27, Z+3	; 0x03
    1fe6:	8c 91       	ld	r24, X
    1fe8:	8d 7f       	andi	r24, 0xFD	; 253
    1fea:	8c 93       	st	X, r24
    1fec:	02 80       	ldd	r0, Z+2	; 0x02
    1fee:	f3 81       	ldd	r31, Z+3	; 0x03
    1ff0:	e0 2d       	mov	r30, r0
    1ff2:	80 81       	ld	r24, Z
    1ff4:	81 60       	ori	r24, 0x01	; 1
    1ff6:	80 83       	st	Z, r24
    1ff8:	08 95       	ret
    1ffa:	80 81       	ld	r24, Z
    1ffc:	8b 7f       	andi	r24, 0xFB	; 251
    1ffe:	80 83       	st	Z, r24
    2000:	e8 e4       	ldi	r30, 0x48	; 72
    2002:	f1 e0       	ldi	r31, 0x01	; 1
    2004:	a2 81       	ldd	r26, Z+2	; 0x02
    2006:	b3 81       	ldd	r27, Z+3	; 0x03
    2008:	8c 91       	ld	r24, X
    200a:	82 60       	ori	r24, 0x02	; 2
    200c:	8c 93       	st	X, r24
    200e:	02 80       	ldd	r0, Z+2	; 0x02
    2010:	f3 81       	ldd	r31, Z+3	; 0x03
    2012:	e0 2d       	mov	r30, r0
    2014:	80 81       	ld	r24, Z
    2016:	8e 7f       	andi	r24, 0xFE	; 254
    2018:	80 83       	st	Z, r24
    201a:	08 95       	ret
    201c:	80 81       	ld	r24, Z
    201e:	8b 7f       	andi	r24, 0xFB	; 251
    2020:	80 83       	st	Z, r24
    2022:	e8 e4       	ldi	r30, 0x48	; 72
    2024:	f1 e0       	ldi	r31, 0x01	; 1
    2026:	a2 81       	ldd	r26, Z+2	; 0x02
    2028:	b3 81       	ldd	r27, Z+3	; 0x03
    202a:	8c 91       	ld	r24, X
    202c:	82 60       	ori	r24, 0x02	; 2
    202e:	8c 93       	st	X, r24
    2030:	02 80       	ldd	r0, Z+2	; 0x02
    2032:	f3 81       	ldd	r31, Z+3	; 0x03
    2034:	e0 2d       	mov	r30, r0
    2036:	80 81       	ld	r24, Z
    2038:	81 60       	ori	r24, 0x01	; 1
    203a:	80 83       	st	Z, r24
    203c:	08 95       	ret
    203e:	80 81       	ld	r24, Z
    2040:	84 60       	ori	r24, 0x04	; 4
    2042:	80 83       	st	Z, r24
    2044:	e8 e4       	ldi	r30, 0x48	; 72
    2046:	f1 e0       	ldi	r31, 0x01	; 1
    2048:	a2 81       	ldd	r26, Z+2	; 0x02
    204a:	b3 81       	ldd	r27, Z+3	; 0x03
    204c:	8c 91       	ld	r24, X
    204e:	8d 7f       	andi	r24, 0xFD	; 253
    2050:	8c 93       	st	X, r24
    2052:	02 80       	ldd	r0, Z+2	; 0x02
    2054:	f3 81       	ldd	r31, Z+3	; 0x03
    2056:	e0 2d       	mov	r30, r0
    2058:	80 81       	ld	r24, Z
    205a:	8e 7f       	andi	r24, 0xFE	; 254
    205c:	80 83       	st	Z, r24
    205e:	08 95       	ret
    2060:	80 81       	ld	r24, Z
    2062:	84 60       	ori	r24, 0x04	; 4
    2064:	80 83       	st	Z, r24
    2066:	e8 e4       	ldi	r30, 0x48	; 72
    2068:	f1 e0       	ldi	r31, 0x01	; 1
    206a:	a2 81       	ldd	r26, Z+2	; 0x02
    206c:	b3 81       	ldd	r27, Z+3	; 0x03
    206e:	8c 91       	ld	r24, X
    2070:	8d 7f       	andi	r24, 0xFD	; 253
    2072:	8c 93       	st	X, r24
    2074:	02 80       	ldd	r0, Z+2	; 0x02
    2076:	f3 81       	ldd	r31, Z+3	; 0x03
    2078:	e0 2d       	mov	r30, r0
    207a:	80 81       	ld	r24, Z
    207c:	81 60       	ori	r24, 0x01	; 1
    207e:	80 83       	st	Z, r24
    2080:	08 95       	ret

00002082 <TIM3_CLK_Configuration>:
    2082:	e0 91 60 01 	lds	r30, 0x0160	; 0x800160 <TIM16_descripter+0x18>
    2086:	f0 91 61 01 	lds	r31, 0x0161	; 0x800161 <TIM16_descripter+0x19>
    208a:	20 81       	ld	r18, Z
    208c:	20 81       	ld	r18, Z
    208e:	dc 01       	movw	r26, r24
    2090:	12 96       	adiw	r26, 0x02	; 2
    2092:	8c 91       	ld	r24, X
    2094:	83 30       	cpi	r24, 0x03	; 3
    2096:	71 f1       	breq	.+92     	; 0x20f4 <TIM3_CLK_Configuration+0x72>
    2098:	28 f4       	brcc	.+10     	; 0x20a4 <TIM3_CLK_Configuration+0x22>
    209a:	88 23       	and	r24, r24
    209c:	49 f0       	breq	.+18     	; 0x20b0 <TIM3_CLK_Configuration+0x2e>
    209e:	81 30       	cpi	r24, 0x01	; 1
    20a0:	c1 f0       	breq	.+48     	; 0x20d2 <TIM3_CLK_Configuration+0x50>
    20a2:	08 95       	ret
    20a4:	85 30       	cpi	r24, 0x05	; 5
    20a6:	b9 f1       	breq	.+110    	; 0x2116 <TIM3_CLK_Configuration+0x94>
    20a8:	86 30       	cpi	r24, 0x06	; 6
    20aa:	09 f4       	brne	.+2      	; 0x20ae <TIM3_CLK_Configuration+0x2c>
    20ac:	45 c0       	rjmp	.+138    	; 0x2138 <TIM3_CLK_Configuration+0xb6>
    20ae:	08 95       	ret
    20b0:	80 81       	ld	r24, Z
    20b2:	8b 7f       	andi	r24, 0xFB	; 251
    20b4:	80 83       	st	Z, r24
    20b6:	e8 e4       	ldi	r30, 0x48	; 72
    20b8:	f1 e0       	ldi	r31, 0x01	; 1
    20ba:	a0 8d       	ldd	r26, Z+24	; 0x18
    20bc:	b1 8d       	ldd	r27, Z+25	; 0x19
    20be:	8c 91       	ld	r24, X
    20c0:	8d 7f       	andi	r24, 0xFD	; 253
    20c2:	8c 93       	st	X, r24
    20c4:	00 8c       	ldd	r0, Z+24	; 0x18
    20c6:	f1 8d       	ldd	r31, Z+25	; 0x19
    20c8:	e0 2d       	mov	r30, r0
    20ca:	80 81       	ld	r24, Z
    20cc:	81 60       	ori	r24, 0x01	; 1
    20ce:	80 83       	st	Z, r24
    20d0:	08 95       	ret
    20d2:	80 81       	ld	r24, Z
    20d4:	8b 7f       	andi	r24, 0xFB	; 251
    20d6:	80 83       	st	Z, r24
    20d8:	e8 e4       	ldi	r30, 0x48	; 72
    20da:	f1 e0       	ldi	r31, 0x01	; 1
    20dc:	a0 8d       	ldd	r26, Z+24	; 0x18
    20de:	b1 8d       	ldd	r27, Z+25	; 0x19
    20e0:	8c 91       	ld	r24, X
    20e2:	82 60       	ori	r24, 0x02	; 2
    20e4:	8c 93       	st	X, r24
    20e6:	00 8c       	ldd	r0, Z+24	; 0x18
    20e8:	f1 8d       	ldd	r31, Z+25	; 0x19
    20ea:	e0 2d       	mov	r30, r0
    20ec:	80 81       	ld	r24, Z
    20ee:	8e 7f       	andi	r24, 0xFE	; 254
    20f0:	80 83       	st	Z, r24
    20f2:	08 95       	ret
    20f4:	80 81       	ld	r24, Z
    20f6:	8b 7f       	andi	r24, 0xFB	; 251
    20f8:	80 83       	st	Z, r24
    20fa:	e8 e4       	ldi	r30, 0x48	; 72
    20fc:	f1 e0       	ldi	r31, 0x01	; 1
    20fe:	a0 8d       	ldd	r26, Z+24	; 0x18
    2100:	b1 8d       	ldd	r27, Z+25	; 0x19
    2102:	8c 91       	ld	r24, X
    2104:	82 60       	ori	r24, 0x02	; 2
    2106:	8c 93       	st	X, r24
    2108:	00 8c       	ldd	r0, Z+24	; 0x18
    210a:	f1 8d       	ldd	r31, Z+25	; 0x19
    210c:	e0 2d       	mov	r30, r0
    210e:	80 81       	ld	r24, Z
    2110:	81 60       	ori	r24, 0x01	; 1
    2112:	80 83       	st	Z, r24
    2114:	08 95       	ret
    2116:	80 81       	ld	r24, Z
    2118:	84 60       	ori	r24, 0x04	; 4
    211a:	80 83       	st	Z, r24
    211c:	e8 e4       	ldi	r30, 0x48	; 72
    211e:	f1 e0       	ldi	r31, 0x01	; 1
    2120:	a0 8d       	ldd	r26, Z+24	; 0x18
    2122:	b1 8d       	ldd	r27, Z+25	; 0x19
    2124:	8c 91       	ld	r24, X
    2126:	8d 7f       	andi	r24, 0xFD	; 253
    2128:	8c 93       	st	X, r24
    212a:	00 8c       	ldd	r0, Z+24	; 0x18
    212c:	f1 8d       	ldd	r31, Z+25	; 0x19
    212e:	e0 2d       	mov	r30, r0
    2130:	80 81       	ld	r24, Z
    2132:	8e 7f       	andi	r24, 0xFE	; 254
    2134:	80 83       	st	Z, r24
    2136:	08 95       	ret
    2138:	80 81       	ld	r24, Z
    213a:	84 60       	ori	r24, 0x04	; 4
    213c:	80 83       	st	Z, r24
    213e:	e8 e4       	ldi	r30, 0x48	; 72
    2140:	f1 e0       	ldi	r31, 0x01	; 1
    2142:	a0 8d       	ldd	r26, Z+24	; 0x18
    2144:	b1 8d       	ldd	r27, Z+25	; 0x19
    2146:	8c 91       	ld	r24, X
    2148:	8d 7f       	andi	r24, 0xFD	; 253
    214a:	8c 93       	st	X, r24
    214c:	00 8c       	ldd	r0, Z+24	; 0x18
    214e:	f1 8d       	ldd	r31, Z+25	; 0x19
    2150:	e0 2d       	mov	r30, r0
    2152:	80 81       	ld	r24, Z
    2154:	81 60       	ori	r24, 0x01	; 1
    2156:	80 83       	st	Z, r24
    2158:	08 95       	ret

0000215a <TIM16_OC_Start>:
    215a:	fc 01       	movw	r30, r24
    215c:	90 81       	ld	r25, Z
    215e:	91 30       	cpi	r25, 0x01	; 1
    2160:	19 f0       	breq	.+6      	; 0x2168 <TIM16_OC_Start+0xe>
    2162:	93 30       	cpi	r25, 0x03	; 3
    2164:	29 f0       	breq	.+10     	; 0x2170 <TIM16_OC_Start+0x16>
    2166:	08 c0       	rjmp	.+16     	; 0x2178 <TIM16_OC_Start+0x1e>
    2168:	cf 01       	movw	r24, r30
    216a:	1f df       	rcall	.-450    	; 0x1faa <TIM1_CLK_Configuration>
    216c:	80 e0       	ldi	r24, 0x00	; 0
    216e:	08 95       	ret
    2170:	cf 01       	movw	r24, r30
    2172:	87 df       	rcall	.-242    	; 0x2082 <TIM3_CLK_Configuration>
    2174:	80 e0       	ldi	r24, 0x00	; 0
    2176:	08 95       	ret
    2178:	81 e0       	ldi	r24, 0x01	; 1
    217a:	08 95       	ret

0000217c <TIM0_OVF_ElapsedCallback>:
    217c:	08 95       	ret

0000217e <TIM0_OVF_IRQHandler>:
    217e:	fe cf       	rjmp	.-4      	; 0x217c <TIM0_OVF_ElapsedCallback>
    2180:	08 95       	ret

00002182 <TIM2_OVF_ElapsedCallback>:
    2182:	08 95       	ret

00002184 <TIM2_OVF_IRQHandler>:
    2184:	fe cf       	rjmp	.-4      	; 0x2182 <TIM2_OVF_ElapsedCallback>
    2186:	08 95       	ret

00002188 <TIM0_OC_ElapsedCallback>:
{
	UNUSED(htim);
}

__attribute__((weak)) void TIM0_OC_ElapsedCallback(TIM8_HandleTypeDef *htim)
{
    2188:	08 95       	ret

0000218a <TIM0_OC_IRQHandler>:
	TIM3_OVF_ElapsedCallback(htim);
}

void TIM0_OC_IRQHandler(TIM8_HandleTypeDef *htim)
{
	TIM0_OC_ElapsedCallback(htim);	
    218a:	fe cf       	rjmp	.-4      	; 0x2188 <TIM0_OC_ElapsedCallback>
    218c:	08 95       	ret

0000218e <TIM2_OC_ElapsedCallback>:
{
	UNUSED(htim);
}

__attribute__((weak)) void TIM2_OC_ElapsedCallback(TIM8_HandleTypeDef *htim)
{
    218e:	08 95       	ret

00002190 <TIM2_OC_IRQHandler>:
	TIM0_OC_ElapsedCallback(htim);	
}

void TIM2_OC_IRQHandler(TIM8_HandleTypeDef *htim)
{
	TIM2_OC_ElapsedCallback(htim);
    2190:	fe cf       	rjmp	.-4      	; 0x218e <TIM2_OC_ElapsedCallback>
    2192:	08 95       	ret

00002194 <UART_Init>:
{
	UNUSED(huart);
}

__attribute__((weak)) void UART_RxCpltCallback(UART_HandleTypeDef *huart)
{
    2194:	cf 92       	push	r12
    2196:	df 92       	push	r13
    2198:	ef 92       	push	r14
    219a:	ff 92       	push	r15
    219c:	0f 93       	push	r16
    219e:	1f 93       	push	r17
    21a0:	cf 93       	push	r28
    21a2:	df 93       	push	r29
    21a4:	fc 01       	movw	r30, r24
    21a6:	c0 81       	ld	r28, Z
    21a8:	d0 e0       	ldi	r29, 0x00	; 0
    21aa:	00 97       	sbiw	r24, 0x00	; 0
    21ac:	09 f4       	brne	.+2      	; 0x21b0 <UART_Init+0x1c>
    21ae:	e3 c1       	rjmp	.+966    	; 0x2576 <UART_Init+0x3e2>
    21b0:	8c 01       	movw	r16, r24
    21b2:	81 85       	ldd	r24, Z+9	; 0x09
    21b4:	88 23       	and	r24, r24
    21b6:	21 f0       	breq	.+8      	; 0x21c0 <UART_Init+0x2c>
    21b8:	81 30       	cpi	r24, 0x01	; 1
    21ba:	09 f4       	brne	.+2      	; 0x21be <UART_Init+0x2a>
    21bc:	41 c0       	rjmp	.+130    	; 0x2240 <UART_Init+0xac>
    21be:	7b c0       	rjmp	.+246    	; 0x22b6 <UART_Init+0x122>
    21c0:	81 81       	ldd	r24, Z+1	; 0x01
    21c2:	92 81       	ldd	r25, Z+2	; 0x02
    21c4:	a3 81       	ldd	r26, Z+3	; 0x03
    21c6:	b4 81       	ldd	r27, Z+4	; 0x04
    21c8:	88 0f       	add	r24, r24
    21ca:	99 1f       	adc	r25, r25
    21cc:	aa 1f       	adc	r26, r26
    21ce:	bb 1f       	adc	r27, r27
    21d0:	88 0f       	add	r24, r24
    21d2:	99 1f       	adc	r25, r25
    21d4:	aa 1f       	adc	r26, r26
    21d6:	bb 1f       	adc	r27, r27
    21d8:	bc 01       	movw	r22, r24
    21da:	cd 01       	movw	r24, r26
    21dc:	66 0f       	add	r22, r22
    21de:	77 1f       	adc	r23, r23
    21e0:	88 1f       	adc	r24, r24
    21e2:	99 1f       	adc	r25, r25
    21e4:	66 0f       	add	r22, r22
    21e6:	77 1f       	adc	r23, r23
    21e8:	88 1f       	adc	r24, r24
    21ea:	99 1f       	adc	r25, r25
    21ec:	d6 d3       	rcall	.+1964   	; 0x299a <__floatunsisf>
    21ee:	9b 01       	movw	r18, r22
    21f0:	ac 01       	movw	r20, r24
    21f2:	60 e0       	ldi	r22, 0x00	; 0
    21f4:	74 e2       	ldi	r23, 0x24	; 36
    21f6:	84 e7       	ldi	r24, 0x74	; 116
    21f8:	9b e4       	ldi	r25, 0x4B	; 75
    21fa:	3b d3       	rcall	.+1654   	; 0x2872 <__divsf3>
    21fc:	20 e0       	ldi	r18, 0x00	; 0
    21fe:	30 e0       	ldi	r19, 0x00	; 0
    2200:	40 e0       	ldi	r20, 0x00	; 0
    2202:	5f e3       	ldi	r21, 0x3F	; 63
    2204:	d1 d2       	rcall	.+1442   	; 0x27a8 <__subsf3>
    2206:	9d d3       	rcall	.+1850   	; 0x2942 <__fixunssfsi>
    2208:	fe 01       	movw	r30, r28
    220a:	ee 0f       	add	r30, r30
    220c:	ff 1f       	adc	r31, r31
    220e:	ec 0f       	add	r30, r28
    2210:	fd 1f       	adc	r31, r29
    2212:	ee 0f       	add	r30, r30
    2214:	ff 1f       	adc	r31, r31
    2216:	ee 0f       	add	r30, r30
    2218:	ff 1f       	adc	r31, r31
    221a:	ec 57       	subi	r30, 0x7C	; 124
    221c:	fe 4f       	sbci	r31, 0xFE	; 254
    221e:	a0 85       	ldd	r26, Z+8	; 0x08
    2220:	b1 85       	ldd	r27, Z+9	; 0x09
    2222:	c7 2e       	mov	r12, r23
    2224:	d8 2e       	mov	r13, r24
    2226:	e9 2e       	mov	r14, r25
    2228:	ff 24       	eor	r15, r15
    222a:	cc 92       	st	X, r12
    222c:	a2 85       	ldd	r26, Z+10	; 0x0a
    222e:	b3 85       	ldd	r27, Z+11	; 0x0b
    2230:	6c 93       	st	X, r22
    2232:	02 80       	ldd	r0, Z+2	; 0x02
    2234:	f3 81       	ldd	r31, Z+3	; 0x03
    2236:	e0 2d       	mov	r30, r0
    2238:	80 81       	ld	r24, Z
    223a:	8d 7f       	andi	r24, 0xFD	; 253
    223c:	80 83       	st	Z, r24
    223e:	3b c0       	rjmp	.+118    	; 0x22b6 <UART_Init+0x122>
    2240:	81 81       	ldd	r24, Z+1	; 0x01
    2242:	92 81       	ldd	r25, Z+2	; 0x02
    2244:	a3 81       	ldd	r26, Z+3	; 0x03
    2246:	b4 81       	ldd	r27, Z+4	; 0x04
    2248:	88 0f       	add	r24, r24
    224a:	99 1f       	adc	r25, r25
    224c:	aa 1f       	adc	r26, r26
    224e:	bb 1f       	adc	r27, r27
    2250:	88 0f       	add	r24, r24
    2252:	99 1f       	adc	r25, r25
    2254:	aa 1f       	adc	r26, r26
    2256:	bb 1f       	adc	r27, r27
    2258:	bc 01       	movw	r22, r24
    225a:	cd 01       	movw	r24, r26
    225c:	66 0f       	add	r22, r22
    225e:	77 1f       	adc	r23, r23
    2260:	88 1f       	adc	r24, r24
    2262:	99 1f       	adc	r25, r25
    2264:	9a d3       	rcall	.+1844   	; 0x299a <__floatunsisf>
    2266:	9b 01       	movw	r18, r22
    2268:	ac 01       	movw	r20, r24
    226a:	60 e0       	ldi	r22, 0x00	; 0
    226c:	74 e2       	ldi	r23, 0x24	; 36
    226e:	84 e7       	ldi	r24, 0x74	; 116
    2270:	9b e4       	ldi	r25, 0x4B	; 75
    2272:	ff d2       	rcall	.+1534   	; 0x2872 <__divsf3>
    2274:	20 e0       	ldi	r18, 0x00	; 0
    2276:	30 e0       	ldi	r19, 0x00	; 0
    2278:	40 e0       	ldi	r20, 0x00	; 0
    227a:	5f e3       	ldi	r21, 0x3F	; 63
    227c:	95 d2       	rcall	.+1322   	; 0x27a8 <__subsf3>
    227e:	61 d3       	rcall	.+1730   	; 0x2942 <__fixunssfsi>
    2280:	fe 01       	movw	r30, r28
    2282:	ee 0f       	add	r30, r30
    2284:	ff 1f       	adc	r31, r31
    2286:	ec 0f       	add	r30, r28
    2288:	fd 1f       	adc	r31, r29
    228a:	ee 0f       	add	r30, r30
    228c:	ff 1f       	adc	r31, r31
    228e:	ee 0f       	add	r30, r30
    2290:	ff 1f       	adc	r31, r31
    2292:	ec 57       	subi	r30, 0x7C	; 124
    2294:	fe 4f       	sbci	r31, 0xFE	; 254
    2296:	a0 85       	ldd	r26, Z+8	; 0x08
    2298:	b1 85       	ldd	r27, Z+9	; 0x09
    229a:	c7 2e       	mov	r12, r23
    229c:	d8 2e       	mov	r13, r24
    229e:	e9 2e       	mov	r14, r25
    22a0:	ff 24       	eor	r15, r15
    22a2:	cc 92       	st	X, r12
    22a4:	a2 85       	ldd	r26, Z+10	; 0x0a
    22a6:	b3 85       	ldd	r27, Z+11	; 0x0b
    22a8:	6c 93       	st	X, r22
    22aa:	02 80       	ldd	r0, Z+2	; 0x02
    22ac:	f3 81       	ldd	r31, Z+3	; 0x03
    22ae:	e0 2d       	mov	r30, r0
    22b0:	80 81       	ld	r24, Z
    22b2:	82 60       	ori	r24, 0x02	; 2
    22b4:	80 83       	st	Z, r24
    22b6:	f8 01       	movw	r30, r16
    22b8:	85 81       	ldd	r24, Z+5	; 0x05
    22ba:	82 30       	cpi	r24, 0x02	; 2
    22bc:	09 f4       	brne	.+2      	; 0x22c0 <UART_Init+0x12c>
    22be:	45 c0       	rjmp	.+138    	; 0x234a <UART_Init+0x1b6>
    22c0:	28 f4       	brcc	.+10     	; 0x22cc <UART_Init+0x138>
    22c2:	88 23       	and	r24, r24
    22c4:	51 f0       	breq	.+20     	; 0x22da <UART_Init+0x146>
    22c6:	81 30       	cpi	r24, 0x01	; 1
    22c8:	21 f1       	breq	.+72     	; 0x2312 <UART_Init+0x17e>
    22ca:	92 c0       	rjmp	.+292    	; 0x23f0 <UART_Init+0x25c>
    22cc:	83 30       	cpi	r24, 0x03	; 3
    22ce:	09 f4       	brne	.+2      	; 0x22d2 <UART_Init+0x13e>
    22d0:	58 c0       	rjmp	.+176    	; 0x2382 <UART_Init+0x1ee>
    22d2:	84 30       	cpi	r24, 0x04	; 4
    22d4:	09 f4       	brne	.+2      	; 0x22d8 <UART_Init+0x144>
    22d6:	71 c0       	rjmp	.+226    	; 0x23ba <UART_Init+0x226>
    22d8:	8b c0       	rjmp	.+278    	; 0x23f0 <UART_Init+0x25c>
    22da:	fe 01       	movw	r30, r28
    22dc:	ee 0f       	add	r30, r30
    22de:	ff 1f       	adc	r31, r31
    22e0:	ec 0f       	add	r30, r28
    22e2:	fd 1f       	adc	r31, r29
    22e4:	ee 0f       	add	r30, r30
    22e6:	ff 1f       	adc	r31, r31
    22e8:	ee 0f       	add	r30, r30
    22ea:	ff 1f       	adc	r31, r31
    22ec:	ec 57       	subi	r30, 0x7C	; 124
    22ee:	fe 4f       	sbci	r31, 0xFE	; 254
    22f0:	a4 81       	ldd	r26, Z+4	; 0x04
    22f2:	b5 81       	ldd	r27, Z+5	; 0x05
    22f4:	8c 91       	ld	r24, X
    22f6:	8b 7f       	andi	r24, 0xFB	; 251
    22f8:	8c 93       	st	X, r24
    22fa:	a6 81       	ldd	r26, Z+6	; 0x06
    22fc:	b7 81       	ldd	r27, Z+7	; 0x07
    22fe:	8c 91       	ld	r24, X
    2300:	84 60       	ori	r24, 0x04	; 4
    2302:	8c 93       	st	X, r24
    2304:	06 80       	ldd	r0, Z+6	; 0x06
    2306:	f7 81       	ldd	r31, Z+7	; 0x07
    2308:	e0 2d       	mov	r30, r0
    230a:	80 81       	ld	r24, Z
    230c:	82 60       	ori	r24, 0x02	; 2
    230e:	80 83       	st	Z, r24
    2310:	6f c0       	rjmp	.+222    	; 0x23f0 <UART_Init+0x25c>
    2312:	fe 01       	movw	r30, r28
    2314:	ee 0f       	add	r30, r30
    2316:	ff 1f       	adc	r31, r31
    2318:	ec 0f       	add	r30, r28
    231a:	fd 1f       	adc	r31, r29
    231c:	ee 0f       	add	r30, r30
    231e:	ff 1f       	adc	r31, r31
    2320:	ee 0f       	add	r30, r30
    2322:	ff 1f       	adc	r31, r31
    2324:	ec 57       	subi	r30, 0x7C	; 124
    2326:	fe 4f       	sbci	r31, 0xFE	; 254
    2328:	a4 81       	ldd	r26, Z+4	; 0x04
    232a:	b5 81       	ldd	r27, Z+5	; 0x05
    232c:	8c 91       	ld	r24, X
    232e:	8b 7f       	andi	r24, 0xFB	; 251
    2330:	8c 93       	st	X, r24
    2332:	a6 81       	ldd	r26, Z+6	; 0x06
    2334:	b7 81       	ldd	r27, Z+7	; 0x07
    2336:	8c 91       	ld	r24, X
    2338:	8b 7f       	andi	r24, 0xFB	; 251
    233a:	8c 93       	st	X, r24
    233c:	06 80       	ldd	r0, Z+6	; 0x06
    233e:	f7 81       	ldd	r31, Z+7	; 0x07
    2340:	e0 2d       	mov	r30, r0
    2342:	80 81       	ld	r24, Z
    2344:	8d 7f       	andi	r24, 0xFD	; 253
    2346:	80 83       	st	Z, r24
    2348:	53 c0       	rjmp	.+166    	; 0x23f0 <UART_Init+0x25c>
    234a:	fe 01       	movw	r30, r28
    234c:	ee 0f       	add	r30, r30
    234e:	ff 1f       	adc	r31, r31
    2350:	ec 0f       	add	r30, r28
    2352:	fd 1f       	adc	r31, r29
    2354:	ee 0f       	add	r30, r30
    2356:	ff 1f       	adc	r31, r31
    2358:	ee 0f       	add	r30, r30
    235a:	ff 1f       	adc	r31, r31
    235c:	ec 57       	subi	r30, 0x7C	; 124
    235e:	fe 4f       	sbci	r31, 0xFE	; 254
    2360:	a4 81       	ldd	r26, Z+4	; 0x04
    2362:	b5 81       	ldd	r27, Z+5	; 0x05
    2364:	8c 91       	ld	r24, X
    2366:	8b 7f       	andi	r24, 0xFB	; 251
    2368:	8c 93       	st	X, r24
    236a:	a6 81       	ldd	r26, Z+6	; 0x06
    236c:	b7 81       	ldd	r27, Z+7	; 0x07
    236e:	8c 91       	ld	r24, X
    2370:	8b 7f       	andi	r24, 0xFB	; 251
    2372:	8c 93       	st	X, r24
    2374:	06 80       	ldd	r0, Z+6	; 0x06
    2376:	f7 81       	ldd	r31, Z+7	; 0x07
    2378:	e0 2d       	mov	r30, r0
    237a:	80 81       	ld	r24, Z
    237c:	82 60       	ori	r24, 0x02	; 2
    237e:	80 83       	st	Z, r24
    2380:	37 c0       	rjmp	.+110    	; 0x23f0 <UART_Init+0x25c>
    2382:	fe 01       	movw	r30, r28
    2384:	ee 0f       	add	r30, r30
    2386:	ff 1f       	adc	r31, r31
    2388:	ec 0f       	add	r30, r28
    238a:	fd 1f       	adc	r31, r29
    238c:	ee 0f       	add	r30, r30
    238e:	ff 1f       	adc	r31, r31
    2390:	ee 0f       	add	r30, r30
    2392:	ff 1f       	adc	r31, r31
    2394:	ec 57       	subi	r30, 0x7C	; 124
    2396:	fe 4f       	sbci	r31, 0xFE	; 254
    2398:	a4 81       	ldd	r26, Z+4	; 0x04
    239a:	b5 81       	ldd	r27, Z+5	; 0x05
    239c:	8c 91       	ld	r24, X
    239e:	8b 7f       	andi	r24, 0xFB	; 251
    23a0:	8c 93       	st	X, r24
    23a2:	a6 81       	ldd	r26, Z+6	; 0x06
    23a4:	b7 81       	ldd	r27, Z+7	; 0x07
    23a6:	8c 91       	ld	r24, X
    23a8:	84 60       	ori	r24, 0x04	; 4
    23aa:	8c 93       	st	X, r24
    23ac:	06 80       	ldd	r0, Z+6	; 0x06
    23ae:	f7 81       	ldd	r31, Z+7	; 0x07
    23b0:	e0 2d       	mov	r30, r0
    23b2:	80 81       	ld	r24, Z
    23b4:	8d 7f       	andi	r24, 0xFD	; 253
    23b6:	80 83       	st	Z, r24
    23b8:	1b c0       	rjmp	.+54     	; 0x23f0 <UART_Init+0x25c>
    23ba:	fe 01       	movw	r30, r28
    23bc:	ee 0f       	add	r30, r30
    23be:	ff 1f       	adc	r31, r31
    23c0:	ec 0f       	add	r30, r28
    23c2:	fd 1f       	adc	r31, r29
    23c4:	ee 0f       	add	r30, r30
    23c6:	ff 1f       	adc	r31, r31
    23c8:	ee 0f       	add	r30, r30
    23ca:	ff 1f       	adc	r31, r31
    23cc:	ec 57       	subi	r30, 0x7C	; 124
    23ce:	fe 4f       	sbci	r31, 0xFE	; 254
    23d0:	a4 81       	ldd	r26, Z+4	; 0x04
    23d2:	b5 81       	ldd	r27, Z+5	; 0x05
    23d4:	8c 91       	ld	r24, X
    23d6:	84 60       	ori	r24, 0x04	; 4
    23d8:	8c 93       	st	X, r24
    23da:	a6 81       	ldd	r26, Z+6	; 0x06
    23dc:	b7 81       	ldd	r27, Z+7	; 0x07
    23de:	8c 91       	ld	r24, X
    23e0:	84 60       	ori	r24, 0x04	; 4
    23e2:	8c 93       	st	X, r24
    23e4:	06 80       	ldd	r0, Z+6	; 0x06
    23e6:	f7 81       	ldd	r31, Z+7	; 0x07
    23e8:	e0 2d       	mov	r30, r0
    23ea:	80 81       	ld	r24, Z
    23ec:	82 60       	ori	r24, 0x02	; 2
    23ee:	80 83       	st	Z, r24
    23f0:	f8 01       	movw	r30, r16
    23f2:	86 81       	ldd	r24, Z+6	; 0x06
    23f4:	88 23       	and	r24, r24
    23f6:	19 f0       	breq	.+6      	; 0x23fe <UART_Init+0x26a>
    23f8:	81 30       	cpi	r24, 0x01	; 1
    23fa:	99 f0       	breq	.+38     	; 0x2422 <UART_Init+0x28e>
    23fc:	23 c0       	rjmp	.+70     	; 0x2444 <UART_Init+0x2b0>
    23fe:	fe 01       	movw	r30, r28
    2400:	ee 0f       	add	r30, r30
    2402:	ff 1f       	adc	r31, r31
    2404:	ec 0f       	add	r30, r28
    2406:	fd 1f       	adc	r31, r29
    2408:	ee 0f       	add	r30, r30
    240a:	ff 1f       	adc	r31, r31
    240c:	ee 0f       	add	r30, r30
    240e:	ff 1f       	adc	r31, r31
    2410:	ec 57       	subi	r30, 0x7C	; 124
    2412:	fe 4f       	sbci	r31, 0xFE	; 254
    2414:	06 80       	ldd	r0, Z+6	; 0x06
    2416:	f7 81       	ldd	r31, Z+7	; 0x07
    2418:	e0 2d       	mov	r30, r0
    241a:	80 81       	ld	r24, Z
    241c:	8f 7e       	andi	r24, 0xEF	; 239
    241e:	80 83       	st	Z, r24
    2420:	11 c0       	rjmp	.+34     	; 0x2444 <UART_Init+0x2b0>
    2422:	fe 01       	movw	r30, r28
    2424:	ee 0f       	add	r30, r30
    2426:	ff 1f       	adc	r31, r31
    2428:	ec 0f       	add	r30, r28
    242a:	fd 1f       	adc	r31, r29
    242c:	ee 0f       	add	r30, r30
    242e:	ff 1f       	adc	r31, r31
    2430:	ee 0f       	add	r30, r30
    2432:	ff 1f       	adc	r31, r31
    2434:	ec 57       	subi	r30, 0x7C	; 124
    2436:	fe 4f       	sbci	r31, 0xFE	; 254
    2438:	06 80       	ldd	r0, Z+6	; 0x06
    243a:	f7 81       	ldd	r31, Z+7	; 0x07
    243c:	e0 2d       	mov	r30, r0
    243e:	80 81       	ld	r24, Z
    2440:	80 61       	ori	r24, 0x10	; 16
    2442:	80 83       	st	Z, r24
    2444:	f8 01       	movw	r30, r16
    2446:	87 81       	ldd	r24, Z+7	; 0x07
    2448:	81 30       	cpi	r24, 0x01	; 1
    244a:	d9 f0       	breq	.+54     	; 0x2482 <UART_Init+0x2ee>
    244c:	18 f0       	brcs	.+6      	; 0x2454 <UART_Init+0x2c0>
    244e:	82 30       	cpi	r24, 0x02	; 2
    2450:	79 f1       	breq	.+94     	; 0x24b0 <UART_Init+0x31c>
    2452:	44 c0       	rjmp	.+136    	; 0x24dc <UART_Init+0x348>
    2454:	fe 01       	movw	r30, r28
    2456:	ee 0f       	add	r30, r30
    2458:	ff 1f       	adc	r31, r31
    245a:	ec 0f       	add	r30, r28
    245c:	fd 1f       	adc	r31, r29
    245e:	ee 0f       	add	r30, r30
    2460:	ff 1f       	adc	r31, r31
    2462:	ee 0f       	add	r30, r30
    2464:	ff 1f       	adc	r31, r31
    2466:	ec 57       	subi	r30, 0x7C	; 124
    2468:	fe 4f       	sbci	r31, 0xFE	; 254
    246a:	a6 81       	ldd	r26, Z+6	; 0x06
    246c:	b7 81       	ldd	r27, Z+7	; 0x07
    246e:	8c 91       	ld	r24, X
    2470:	8f 7b       	andi	r24, 0xBF	; 191
    2472:	8c 93       	st	X, r24
    2474:	06 80       	ldd	r0, Z+6	; 0x06
    2476:	f7 81       	ldd	r31, Z+7	; 0x07
    2478:	e0 2d       	mov	r30, r0
    247a:	80 81       	ld	r24, Z
    247c:	8f 7d       	andi	r24, 0xDF	; 223
    247e:	80 83       	st	Z, r24
    2480:	2d c0       	rjmp	.+90     	; 0x24dc <UART_Init+0x348>
    2482:	fe 01       	movw	r30, r28
    2484:	ee 0f       	add	r30, r30
    2486:	ff 1f       	adc	r31, r31
    2488:	ec 0f       	add	r30, r28
    248a:	fd 1f       	adc	r31, r29
    248c:	ee 0f       	add	r30, r30
    248e:	ff 1f       	adc	r31, r31
    2490:	ee 0f       	add	r30, r30
    2492:	ff 1f       	adc	r31, r31
    2494:	ec 57       	subi	r30, 0x7C	; 124
    2496:	fe 4f       	sbci	r31, 0xFE	; 254
    2498:	a6 81       	ldd	r26, Z+6	; 0x06
    249a:	b7 81       	ldd	r27, Z+7	; 0x07
    249c:	8c 91       	ld	r24, X
    249e:	80 64       	ori	r24, 0x40	; 64
    24a0:	8c 93       	st	X, r24
    24a2:	06 80       	ldd	r0, Z+6	; 0x06
    24a4:	f7 81       	ldd	r31, Z+7	; 0x07
    24a6:	e0 2d       	mov	r30, r0
    24a8:	80 81       	ld	r24, Z
    24aa:	8f 7d       	andi	r24, 0xDF	; 223
    24ac:	80 83       	st	Z, r24
    24ae:	16 c0       	rjmp	.+44     	; 0x24dc <UART_Init+0x348>
    24b0:	fe 01       	movw	r30, r28
    24b2:	ee 0f       	add	r30, r30
    24b4:	ff 1f       	adc	r31, r31
    24b6:	ec 0f       	add	r30, r28
    24b8:	fd 1f       	adc	r31, r29
    24ba:	ee 0f       	add	r30, r30
    24bc:	ff 1f       	adc	r31, r31
    24be:	ee 0f       	add	r30, r30
    24c0:	ff 1f       	adc	r31, r31
    24c2:	ec 57       	subi	r30, 0x7C	; 124
    24c4:	fe 4f       	sbci	r31, 0xFE	; 254
    24c6:	a6 81       	ldd	r26, Z+6	; 0x06
    24c8:	b7 81       	ldd	r27, Z+7	; 0x07
    24ca:	8c 91       	ld	r24, X
    24cc:	80 64       	ori	r24, 0x40	; 64
    24ce:	8c 93       	st	X, r24
    24d0:	06 80       	ldd	r0, Z+6	; 0x06
    24d2:	f7 81       	ldd	r31, Z+7	; 0x07
    24d4:	e0 2d       	mov	r30, r0
    24d6:	80 81       	ld	r24, Z
    24d8:	80 62       	ori	r24, 0x20	; 32
    24da:	80 83       	st	Z, r24
    24dc:	f8 01       	movw	r30, r16
    24de:	80 85       	ldd	r24, Z+8	; 0x08
    24e0:	81 30       	cpi	r24, 0x01	; 1
    24e2:	b1 f0       	breq	.+44     	; 0x2510 <UART_Init+0x37c>
    24e4:	18 f0       	brcs	.+6      	; 0x24ec <UART_Init+0x358>
    24e6:	82 30       	cpi	r24, 0x02	; 2
    24e8:	29 f1       	breq	.+74     	; 0x2534 <UART_Init+0x3a0>
    24ea:	47 c0       	rjmp	.+142    	; 0x257a <UART_Init+0x3e6>
    24ec:	ce 01       	movw	r24, r28
    24ee:	88 0f       	add	r24, r24
    24f0:	99 1f       	adc	r25, r25
    24f2:	c8 0f       	add	r28, r24
    24f4:	d9 1f       	adc	r29, r25
    24f6:	cc 0f       	add	r28, r28
    24f8:	dd 1f       	adc	r29, r29
    24fa:	cc 0f       	add	r28, r28
    24fc:	dd 1f       	adc	r29, r29
    24fe:	cc 57       	subi	r28, 0x7C	; 124
    2500:	de 4f       	sbci	r29, 0xFE	; 254
    2502:	ec 81       	ldd	r30, Y+4	; 0x04
    2504:	fd 81       	ldd	r31, Y+5	; 0x05
    2506:	80 81       	ld	r24, Z
    2508:	80 61       	ori	r24, 0x10	; 16
    250a:	80 83       	st	Z, r24
    250c:	80 e0       	ldi	r24, 0x00	; 0
    250e:	36 c0       	rjmp	.+108    	; 0x257c <UART_Init+0x3e8>
    2510:	ce 01       	movw	r24, r28
    2512:	88 0f       	add	r24, r24
    2514:	99 1f       	adc	r25, r25
    2516:	c8 0f       	add	r28, r24
    2518:	d9 1f       	adc	r29, r25
    251a:	cc 0f       	add	r28, r28
    251c:	dd 1f       	adc	r29, r29
    251e:	cc 0f       	add	r28, r28
    2520:	dd 1f       	adc	r29, r29
    2522:	cc 57       	subi	r28, 0x7C	; 124
    2524:	de 4f       	sbci	r29, 0xFE	; 254
    2526:	ec 81       	ldd	r30, Y+4	; 0x04
    2528:	fd 81       	ldd	r31, Y+5	; 0x05
    252a:	80 81       	ld	r24, Z
    252c:	88 60       	ori	r24, 0x08	; 8
    252e:	80 83       	st	Z, r24
    2530:	80 e0       	ldi	r24, 0x00	; 0
    2532:	24 c0       	rjmp	.+72     	; 0x257c <UART_Init+0x3e8>
    2534:	9e 01       	movw	r18, r28
    2536:	22 0f       	add	r18, r18
    2538:	33 1f       	adc	r19, r19
    253a:	f9 01       	movw	r30, r18
    253c:	ec 0f       	add	r30, r28
    253e:	fd 1f       	adc	r31, r29
    2540:	ee 0f       	add	r30, r30
    2542:	ff 1f       	adc	r31, r31
    2544:	ee 0f       	add	r30, r30
    2546:	ff 1f       	adc	r31, r31
    2548:	ec 57       	subi	r30, 0x7C	; 124
    254a:	fe 4f       	sbci	r31, 0xFE	; 254
    254c:	04 80       	ldd	r0, Z+4	; 0x04
    254e:	f5 81       	ldd	r31, Z+5	; 0x05
    2550:	e0 2d       	mov	r30, r0
    2552:	80 81       	ld	r24, Z
    2554:	88 60       	ori	r24, 0x08	; 8
    2556:	80 83       	st	Z, r24
    2558:	c2 0f       	add	r28, r18
    255a:	d3 1f       	adc	r29, r19
    255c:	cc 0f       	add	r28, r28
    255e:	dd 1f       	adc	r29, r29
    2560:	cc 0f       	add	r28, r28
    2562:	dd 1f       	adc	r29, r29
    2564:	cc 57       	subi	r28, 0x7C	; 124
    2566:	de 4f       	sbci	r29, 0xFE	; 254
    2568:	ec 81       	ldd	r30, Y+4	; 0x04
    256a:	fd 81       	ldd	r31, Y+5	; 0x05
    256c:	80 81       	ld	r24, Z
    256e:	80 61       	ori	r24, 0x10	; 16
    2570:	80 83       	st	Z, r24
    2572:	80 e0       	ldi	r24, 0x00	; 0
    2574:	03 c0       	rjmp	.+6      	; 0x257c <UART_Init+0x3e8>
    2576:	81 e0       	ldi	r24, 0x01	; 1
    2578:	01 c0       	rjmp	.+2      	; 0x257c <UART_Init+0x3e8>
    257a:	80 e0       	ldi	r24, 0x00	; 0
    257c:	df 91       	pop	r29
    257e:	cf 91       	pop	r28
    2580:	1f 91       	pop	r17
    2582:	0f 91       	pop	r16
    2584:	ff 90       	pop	r15
    2586:	ef 90       	pop	r14
    2588:	df 90       	pop	r13
    258a:	cf 90       	pop	r12
    258c:	08 95       	ret

0000258e <UART_Transmit>:
    258e:	af 92       	push	r10
    2590:	bf 92       	push	r11
    2592:	cf 92       	push	r12
    2594:	df 92       	push	r13
    2596:	ef 92       	push	r14
    2598:	ff 92       	push	r15
    259a:	0f 93       	push	r16
    259c:	1f 93       	push	r17
    259e:	cf 93       	push	r28
    25a0:	df 93       	push	r29
    25a2:	8c 01       	movw	r16, r24
    25a4:	ec 01       	movw	r28, r24
    25a6:	88 81       	ld	r24, Y
    25a8:	90 e0       	ldi	r25, 0x00	; 0
    25aa:	1e 8a       	std	Y+22, r1	; 0x16
    25ac:	5f 87       	std	Y+15, r21	; 0x0f
    25ae:	4e 87       	std	Y+14, r20	; 0x0e
    25b0:	5b 8b       	std	Y+19, r21	; 0x13
    25b2:	4a 8b       	std	Y+18, r20	; 0x12
    25b4:	2d 81       	ldd	r18, Y+5	; 0x05
    25b6:	24 30       	cpi	r18, 0x04	; 4
    25b8:	41 f4       	brne	.+16     	; 0x25ca <UART_Transmit+0x3c>
    25ba:	2f 81       	ldd	r18, Y+7	; 0x07
    25bc:	21 11       	cpse	r18, r1
    25be:	08 c0       	rjmp	.+16     	; 0x25d0 <UART_Transmit+0x42>
    25c0:	e6 2e       	mov	r14, r22
    25c2:	f7 2e       	mov	r15, r23
    25c4:	60 e0       	ldi	r22, 0x00	; 0
    25c6:	70 e0       	ldi	r23, 0x00	; 0
    25c8:	05 c0       	rjmp	.+10     	; 0x25d4 <UART_Transmit+0x46>
    25ca:	e1 2c       	mov	r14, r1
    25cc:	f1 2c       	mov	r15, r1
    25ce:	02 c0       	rjmp	.+4      	; 0x25d4 <UART_Transmit+0x46>
    25d0:	e1 2c       	mov	r14, r1
    25d2:	f1 2c       	mov	r15, r1
    25d4:	45 2b       	or	r20, r21
    25d6:	a9 f1       	breq	.+106    	; 0x2642 <UART_Transmit+0xb4>
    25d8:	a6 2e       	mov	r10, r22
    25da:	b7 2e       	mov	r11, r23
    25dc:	d7 01       	movw	r26, r14
    25de:	20 e0       	ldi	r18, 0x00	; 0
    25e0:	30 e0       	ldi	r19, 0x00	; 0
    25e2:	bc 01       	movw	r22, r24
    25e4:	66 0f       	add	r22, r22
    25e6:	77 1f       	adc	r23, r23
    25e8:	68 0f       	add	r22, r24
    25ea:	79 1f       	adc	r23, r25
    25ec:	66 0f       	add	r22, r22
    25ee:	77 1f       	adc	r23, r23
    25f0:	66 0f       	add	r22, r22
    25f2:	77 1f       	adc	r23, r23
    25f4:	6c 57       	subi	r22, 0x7C	; 124
    25f6:	7e 4f       	sbci	r23, 0xFE	; 254
    25f8:	6b 01       	movw	r12, r22
    25fa:	d2 e0       	ldi	r29, 0x02	; 2
    25fc:	cd 0e       	add	r12, r29
    25fe:	d1 1c       	adc	r13, r1
    2600:	e6 01       	movw	r28, r12
    2602:	e8 81       	ld	r30, Y
    2604:	f9 81       	ldd	r31, Y+1	; 0x01
    2606:	90 81       	ld	r25, Z
    2608:	95 ff       	sbrs	r25, 5
    260a:	fd cf       	rjmp	.-6      	; 0x2606 <UART_Transmit+0x78>
    260c:	e1 14       	cp	r14, r1
    260e:	f1 04       	cpc	r15, r1
    2610:	39 f4       	brne	.+14     	; 0x2620 <UART_Transmit+0x92>
    2612:	eb 01       	movw	r28, r22
    2614:	e8 81       	ld	r30, Y
    2616:	f9 81       	ldd	r31, Y+1	; 0x01
    2618:	e5 01       	movw	r28, r10
    261a:	88 81       	ld	r24, Y
    261c:	80 83       	st	Z, r24
    261e:	05 c0       	rjmp	.+10     	; 0x262a <UART_Transmit+0x9c>
    2620:	eb 01       	movw	r28, r22
    2622:	e8 81       	ld	r30, Y
    2624:	f9 81       	ldd	r31, Y+1	; 0x01
    2626:	8c 91       	ld	r24, X
    2628:	80 83       	st	Z, r24
    262a:	2f 5f       	subi	r18, 0xFF	; 255
    262c:	3f 4f       	sbci	r19, 0xFF	; 255
    262e:	df ef       	ldi	r29, 0xFF	; 255
    2630:	ad 1a       	sub	r10, r29
    2632:	bd 0a       	sbc	r11, r29
    2634:	12 96       	adiw	r26, 0x02	; 2
    2636:	f8 01       	movw	r30, r16
    2638:	42 89       	ldd	r20, Z+18	; 0x12
    263a:	53 89       	ldd	r21, Z+19	; 0x13
    263c:	24 17       	cp	r18, r20
    263e:	35 07       	cpc	r19, r21
    2640:	f8 f2       	brcs	.-66     	; 0x2600 <UART_Transmit+0x72>
    2642:	80 e0       	ldi	r24, 0x00	; 0
    2644:	df 91       	pop	r29
    2646:	cf 91       	pop	r28
    2648:	1f 91       	pop	r17
    264a:	0f 91       	pop	r16
    264c:	ff 90       	pop	r15
    264e:	ef 90       	pop	r14
    2650:	df 90       	pop	r13
    2652:	cf 90       	pop	r12
    2654:	bf 90       	pop	r11
    2656:	af 90       	pop	r10
    2658:	08 95       	ret

0000265a <UART_Receive>:
    265a:	af 92       	push	r10
    265c:	bf 92       	push	r11
    265e:	cf 92       	push	r12
    2660:	df 92       	push	r13
    2662:	ef 92       	push	r14
    2664:	ff 92       	push	r15
    2666:	0f 93       	push	r16
    2668:	1f 93       	push	r17
    266a:	cf 93       	push	r28
    266c:	df 93       	push	r29
    266e:	8c 01       	movw	r16, r24
    2670:	ec 01       	movw	r28, r24
    2672:	88 81       	ld	r24, Y
    2674:	90 e0       	ldi	r25, 0x00	; 0
    2676:	1e 8a       	std	Y+22, r1	; 0x16
    2678:	59 8b       	std	Y+17, r21	; 0x11
    267a:	48 8b       	std	Y+16, r20	; 0x10
    267c:	5d 8b       	std	Y+21, r21	; 0x15
    267e:	4c 8b       	std	Y+20, r20	; 0x14
    2680:	2d 81       	ldd	r18, Y+5	; 0x05
    2682:	24 30       	cpi	r18, 0x04	; 4
    2684:	41 f4       	brne	.+16     	; 0x2696 <UART_Receive+0x3c>
    2686:	2f 81       	ldd	r18, Y+7	; 0x07
    2688:	21 11       	cpse	r18, r1
    268a:	08 c0       	rjmp	.+16     	; 0x269c <UART_Receive+0x42>
    268c:	e6 2e       	mov	r14, r22
    268e:	f7 2e       	mov	r15, r23
    2690:	60 e0       	ldi	r22, 0x00	; 0
    2692:	70 e0       	ldi	r23, 0x00	; 0
    2694:	05 c0       	rjmp	.+10     	; 0x26a0 <UART_Receive+0x46>
    2696:	e1 2c       	mov	r14, r1
    2698:	f1 2c       	mov	r15, r1
    269a:	02 c0       	rjmp	.+4      	; 0x26a0 <UART_Receive+0x46>
    269c:	e1 2c       	mov	r14, r1
    269e:	f1 2c       	mov	r15, r1
    26a0:	45 2b       	or	r20, r21
    26a2:	d9 f1       	breq	.+118    	; 0x271a <UART_Receive+0xc0>
    26a4:	a6 2e       	mov	r10, r22
    26a6:	b7 2e       	mov	r11, r23
    26a8:	d7 01       	movw	r26, r14
    26aa:	40 e0       	ldi	r20, 0x00	; 0
    26ac:	50 e0       	ldi	r21, 0x00	; 0
    26ae:	bc 01       	movw	r22, r24
    26b0:	66 0f       	add	r22, r22
    26b2:	77 1f       	adc	r23, r23
    26b4:	68 0f       	add	r22, r24
    26b6:	79 1f       	adc	r23, r25
    26b8:	66 0f       	add	r22, r22
    26ba:	77 1f       	adc	r23, r23
    26bc:	66 0f       	add	r22, r22
    26be:	77 1f       	adc	r23, r23
    26c0:	6c 57       	subi	r22, 0x7C	; 124
    26c2:	7e 4f       	sbci	r23, 0xFE	; 254
    26c4:	6b 01       	movw	r12, r22
    26c6:	d2 e0       	ldi	r29, 0x02	; 2
    26c8:	cd 0e       	add	r12, r29
    26ca:	d1 1c       	adc	r13, r1
    26cc:	e6 01       	movw	r28, r12
    26ce:	e8 81       	ld	r30, Y
    26d0:	f9 81       	ldd	r31, Y+1	; 0x01
    26d2:	90 81       	ld	r25, Z
    26d4:	99 23       	and	r25, r25
    26d6:	1c f4       	brge	.+6      	; 0x26de <UART_Receive+0x84>
    26d8:	90 81       	ld	r25, Z
    26da:	95 ff       	sbrs	r25, 5
    26dc:	fa cf       	rjmp	.-12     	; 0x26d2 <UART_Receive+0x78>
    26de:	e1 14       	cp	r14, r1
    26e0:	f1 04       	cpc	r15, r1
    26e2:	39 f4       	brne	.+14     	; 0x26f2 <UART_Receive+0x98>
    26e4:	eb 01       	movw	r28, r22
    26e6:	e8 81       	ld	r30, Y
    26e8:	f9 81       	ldd	r31, Y+1	; 0x01
    26ea:	80 81       	ld	r24, Z
    26ec:	f5 01       	movw	r30, r10
    26ee:	80 83       	st	Z, r24
    26f0:	08 c0       	rjmp	.+16     	; 0x2702 <UART_Receive+0xa8>
    26f2:	eb 01       	movw	r28, r22
    26f4:	e8 81       	ld	r30, Y
    26f6:	f9 81       	ldd	r31, Y+1	; 0x01
    26f8:	20 81       	ld	r18, Z
    26fa:	30 e0       	ldi	r19, 0x00	; 0
    26fc:	11 96       	adiw	r26, 0x01	; 1
    26fe:	3c 93       	st	X, r19
    2700:	2e 93       	st	-X, r18
    2702:	4f 5f       	subi	r20, 0xFF	; 255
    2704:	5f 4f       	sbci	r21, 0xFF	; 255
    2706:	df ef       	ldi	r29, 0xFF	; 255
    2708:	ad 1a       	sub	r10, r29
    270a:	bd 0a       	sbc	r11, r29
    270c:	12 96       	adiw	r26, 0x02	; 2
    270e:	f8 01       	movw	r30, r16
    2710:	84 89       	ldd	r24, Z+20	; 0x14
    2712:	95 89       	ldd	r25, Z+21	; 0x15
    2714:	48 17       	cp	r20, r24
    2716:	59 07       	cpc	r21, r25
    2718:	c8 f2       	brcs	.-78     	; 0x26cc <UART_Receive+0x72>
    271a:	80 e0       	ldi	r24, 0x00	; 0
    271c:	df 91       	pop	r29
    271e:	cf 91       	pop	r28
    2720:	1f 91       	pop	r17
    2722:	0f 91       	pop	r16
    2724:	ff 90       	pop	r15
    2726:	ef 90       	pop	r14
    2728:	df 90       	pop	r13
    272a:	cf 90       	pop	r12
    272c:	bf 90       	pop	r11
    272e:	af 90       	pop	r10
    2730:	08 95       	ret

00002732 <UART_Receive_IT>:
    2732:	fc 01       	movw	r30, r24
    2734:	20 81       	ld	r18, Z
    2736:	30 e0       	ldi	r19, 0x00	; 0
    2738:	75 87       	std	Z+13, r23	; 0x0d
    273a:	64 87       	std	Z+12, r22	; 0x0c
    273c:	51 8b       	std	Z+17, r21	; 0x11
    273e:	40 8b       	std	Z+16, r20	; 0x10
    2740:	55 8b       	std	Z+21, r21	; 0x15
    2742:	44 8b       	std	Z+20, r20	; 0x14
    2744:	f9 01       	movw	r30, r18
    2746:	ee 0f       	add	r30, r30
    2748:	ff 1f       	adc	r31, r31
    274a:	e2 0f       	add	r30, r18
    274c:	f3 1f       	adc	r31, r19
    274e:	ee 0f       	add	r30, r30
    2750:	ff 1f       	adc	r31, r31
    2752:	ee 0f       	add	r30, r30
    2754:	ff 1f       	adc	r31, r31
    2756:	ec 57       	subi	r30, 0x7C	; 124
    2758:	fe 4f       	sbci	r31, 0xFE	; 254
    275a:	04 80       	ldd	r0, Z+4	; 0x04
    275c:	f5 81       	ldd	r31, Z+5	; 0x05
    275e:	e0 2d       	mov	r30, r0
    2760:	80 81       	ld	r24, Z
    2762:	80 68       	ori	r24, 0x80	; 128
    2764:	80 83       	st	Z, r24
    2766:	80 e0       	ldi	r24, 0x00	; 0
    2768:	08 95       	ret

0000276a <UART_TxIRQHandler>:
    276a:	50 c9       	rjmp	.-3424   	; 0x1a0c <UART_TxCpltCallback>
    276c:	08 95       	ret

0000276e <UART_RxIRQHandler>:
{
	UART_TxCpltCallback(huart);
}

void UART_RxIRQHandler(UART_HandleTypeDef *huart)
{
    276e:	0f 93       	push	r16
    2770:	1f 93       	push	r17
    2772:	cf 93       	push	r28
    2774:	df 93       	push	r29
    2776:	ec 01       	movw	r28, r24
	UART_Receive(huart, huart->pRxBuffPtr, huart->RxXferSize, 100);
    2778:	48 89       	ldd	r20, Y+16	; 0x10
    277a:	59 89       	ldd	r21, Y+17	; 0x11
    277c:	6c 85       	ldd	r22, Y+12	; 0x0c
    277e:	7d 85       	ldd	r23, Y+13	; 0x0d
    2780:	04 e6       	ldi	r16, 0x64	; 100
    2782:	10 e0       	ldi	r17, 0x00	; 0
    2784:	20 e0       	ldi	r18, 0x00	; 0
    2786:	30 e0       	ldi	r19, 0x00	; 0
    2788:	68 df       	rcall	.-304    	; 0x265a <UART_Receive>
	UART_RxCpltCallback(huart);
    278a:	ce 01       	movw	r24, r28
    278c:	40 d9       	rcall	.-3456   	; 0x1a0e <UART_RxCpltCallback>
}
    278e:	df 91       	pop	r29
    2790:	cf 91       	pop	r28
    2792:	1f 91       	pop	r17
    2794:	0f 91       	pop	r16
    2796:	08 95       	ret

00002798 <main>:
#include "main.h"


int main(void)
{
    hwInit();
    2798:	57 d9       	rcall	.-3410   	; 0x1a48 <hwInit>
	apInit();
    279a:	0e 94 76 00 	call	0xec	; 0xec <apInit>
	
	apMain();
    279e:	0e 94 78 00 	call	0xf0	; 0xf0 <apMain>
}
    27a2:	80 e0       	ldi	r24, 0x00	; 0
    27a4:	90 e0       	ldi	r25, 0x00	; 0
    27a6:	08 95       	ret

000027a8 <__subsf3>:
    27a8:	50 58       	subi	r21, 0x80	; 128

000027aa <__addsf3>:
    27aa:	bb 27       	eor	r27, r27
    27ac:	aa 27       	eor	r26, r26
    27ae:	0e d0       	rcall	.+28     	; 0x27cc <__addsf3x>
    27b0:	48 c1       	rjmp	.+656    	; 0x2a42 <__fp_round>
    27b2:	39 d1       	rcall	.+626    	; 0x2a26 <__fp_pscA>
    27b4:	30 f0       	brcs	.+12     	; 0x27c2 <__addsf3+0x18>
    27b6:	3e d1       	rcall	.+636    	; 0x2a34 <__fp_pscB>
    27b8:	20 f0       	brcs	.+8      	; 0x27c2 <__addsf3+0x18>
    27ba:	31 f4       	brne	.+12     	; 0x27c8 <__addsf3+0x1e>
    27bc:	9f 3f       	cpi	r25, 0xFF	; 255
    27be:	11 f4       	brne	.+4      	; 0x27c4 <__addsf3+0x1a>
    27c0:	1e f4       	brtc	.+6      	; 0x27c8 <__addsf3+0x1e>
    27c2:	2e c1       	rjmp	.+604    	; 0x2a20 <__fp_nan>
    27c4:	0e f4       	brtc	.+2      	; 0x27c8 <__addsf3+0x1e>
    27c6:	e0 95       	com	r30
    27c8:	e7 fb       	bst	r30, 7
    27ca:	24 c1       	rjmp	.+584    	; 0x2a14 <__fp_inf>

000027cc <__addsf3x>:
    27cc:	e9 2f       	mov	r30, r25
    27ce:	4a d1       	rcall	.+660    	; 0x2a64 <__fp_split3>
    27d0:	80 f3       	brcs	.-32     	; 0x27b2 <__addsf3+0x8>
    27d2:	ba 17       	cp	r27, r26
    27d4:	62 07       	cpc	r22, r18
    27d6:	73 07       	cpc	r23, r19
    27d8:	84 07       	cpc	r24, r20
    27da:	95 07       	cpc	r25, r21
    27dc:	18 f0       	brcs	.+6      	; 0x27e4 <__addsf3x+0x18>
    27de:	71 f4       	brne	.+28     	; 0x27fc <__addsf3x+0x30>
    27e0:	9e f5       	brtc	.+102    	; 0x2848 <__addsf3x+0x7c>
    27e2:	62 c1       	rjmp	.+708    	; 0x2aa8 <__fp_zero>
    27e4:	0e f4       	brtc	.+2      	; 0x27e8 <__addsf3x+0x1c>
    27e6:	e0 95       	com	r30
    27e8:	0b 2e       	mov	r0, r27
    27ea:	ba 2f       	mov	r27, r26
    27ec:	a0 2d       	mov	r26, r0
    27ee:	0b 01       	movw	r0, r22
    27f0:	b9 01       	movw	r22, r18
    27f2:	90 01       	movw	r18, r0
    27f4:	0c 01       	movw	r0, r24
    27f6:	ca 01       	movw	r24, r20
    27f8:	a0 01       	movw	r20, r0
    27fa:	11 24       	eor	r1, r1
    27fc:	ff 27       	eor	r31, r31
    27fe:	59 1b       	sub	r21, r25
    2800:	99 f0       	breq	.+38     	; 0x2828 <__addsf3x+0x5c>
    2802:	59 3f       	cpi	r21, 0xF9	; 249
    2804:	50 f4       	brcc	.+20     	; 0x281a <__addsf3x+0x4e>
    2806:	50 3e       	cpi	r21, 0xE0	; 224
    2808:	68 f1       	brcs	.+90     	; 0x2864 <__addsf3x+0x98>
    280a:	1a 16       	cp	r1, r26
    280c:	f0 40       	sbci	r31, 0x00	; 0
    280e:	a2 2f       	mov	r26, r18
    2810:	23 2f       	mov	r18, r19
    2812:	34 2f       	mov	r19, r20
    2814:	44 27       	eor	r20, r20
    2816:	58 5f       	subi	r21, 0xF8	; 248
    2818:	f3 cf       	rjmp	.-26     	; 0x2800 <__addsf3x+0x34>
    281a:	46 95       	lsr	r20
    281c:	37 95       	ror	r19
    281e:	27 95       	ror	r18
    2820:	a7 95       	ror	r26
    2822:	f0 40       	sbci	r31, 0x00	; 0
    2824:	53 95       	inc	r21
    2826:	c9 f7       	brne	.-14     	; 0x281a <__addsf3x+0x4e>
    2828:	7e f4       	brtc	.+30     	; 0x2848 <__addsf3x+0x7c>
    282a:	1f 16       	cp	r1, r31
    282c:	ba 0b       	sbc	r27, r26
    282e:	62 0b       	sbc	r22, r18
    2830:	73 0b       	sbc	r23, r19
    2832:	84 0b       	sbc	r24, r20
    2834:	ba f0       	brmi	.+46     	; 0x2864 <__addsf3x+0x98>
    2836:	91 50       	subi	r25, 0x01	; 1
    2838:	a1 f0       	breq	.+40     	; 0x2862 <__addsf3x+0x96>
    283a:	ff 0f       	add	r31, r31
    283c:	bb 1f       	adc	r27, r27
    283e:	66 1f       	adc	r22, r22
    2840:	77 1f       	adc	r23, r23
    2842:	88 1f       	adc	r24, r24
    2844:	c2 f7       	brpl	.-16     	; 0x2836 <__addsf3x+0x6a>
    2846:	0e c0       	rjmp	.+28     	; 0x2864 <__addsf3x+0x98>
    2848:	ba 0f       	add	r27, r26
    284a:	62 1f       	adc	r22, r18
    284c:	73 1f       	adc	r23, r19
    284e:	84 1f       	adc	r24, r20
    2850:	48 f4       	brcc	.+18     	; 0x2864 <__addsf3x+0x98>
    2852:	87 95       	ror	r24
    2854:	77 95       	ror	r23
    2856:	67 95       	ror	r22
    2858:	b7 95       	ror	r27
    285a:	f7 95       	ror	r31
    285c:	9e 3f       	cpi	r25, 0xFE	; 254
    285e:	08 f0       	brcs	.+2      	; 0x2862 <__addsf3x+0x96>
    2860:	b3 cf       	rjmp	.-154    	; 0x27c8 <__addsf3+0x1e>
    2862:	93 95       	inc	r25
    2864:	88 0f       	add	r24, r24
    2866:	08 f0       	brcs	.+2      	; 0x286a <__addsf3x+0x9e>
    2868:	99 27       	eor	r25, r25
    286a:	ee 0f       	add	r30, r30
    286c:	97 95       	ror	r25
    286e:	87 95       	ror	r24
    2870:	08 95       	ret

00002872 <__divsf3>:
    2872:	0c d0       	rcall	.+24     	; 0x288c <__divsf3x>
    2874:	e6 c0       	rjmp	.+460    	; 0x2a42 <__fp_round>
    2876:	de d0       	rcall	.+444    	; 0x2a34 <__fp_pscB>
    2878:	40 f0       	brcs	.+16     	; 0x288a <__divsf3+0x18>
    287a:	d5 d0       	rcall	.+426    	; 0x2a26 <__fp_pscA>
    287c:	30 f0       	brcs	.+12     	; 0x288a <__divsf3+0x18>
    287e:	21 f4       	brne	.+8      	; 0x2888 <__divsf3+0x16>
    2880:	5f 3f       	cpi	r21, 0xFF	; 255
    2882:	19 f0       	breq	.+6      	; 0x288a <__divsf3+0x18>
    2884:	c7 c0       	rjmp	.+398    	; 0x2a14 <__fp_inf>
    2886:	51 11       	cpse	r21, r1
    2888:	10 c1       	rjmp	.+544    	; 0x2aaa <__fp_szero>
    288a:	ca c0       	rjmp	.+404    	; 0x2a20 <__fp_nan>

0000288c <__divsf3x>:
    288c:	eb d0       	rcall	.+470    	; 0x2a64 <__fp_split3>
    288e:	98 f3       	brcs	.-26     	; 0x2876 <__divsf3+0x4>

00002890 <__divsf3_pse>:
    2890:	99 23       	and	r25, r25
    2892:	c9 f3       	breq	.-14     	; 0x2886 <__divsf3+0x14>
    2894:	55 23       	and	r21, r21
    2896:	b1 f3       	breq	.-20     	; 0x2884 <__divsf3+0x12>
    2898:	95 1b       	sub	r25, r21
    289a:	55 0b       	sbc	r21, r21
    289c:	bb 27       	eor	r27, r27
    289e:	aa 27       	eor	r26, r26
    28a0:	62 17       	cp	r22, r18
    28a2:	73 07       	cpc	r23, r19
    28a4:	84 07       	cpc	r24, r20
    28a6:	38 f0       	brcs	.+14     	; 0x28b6 <__divsf3_pse+0x26>
    28a8:	9f 5f       	subi	r25, 0xFF	; 255
    28aa:	5f 4f       	sbci	r21, 0xFF	; 255
    28ac:	22 0f       	add	r18, r18
    28ae:	33 1f       	adc	r19, r19
    28b0:	44 1f       	adc	r20, r20
    28b2:	aa 1f       	adc	r26, r26
    28b4:	a9 f3       	breq	.-22     	; 0x28a0 <__divsf3_pse+0x10>
    28b6:	33 d0       	rcall	.+102    	; 0x291e <__divsf3_pse+0x8e>
    28b8:	0e 2e       	mov	r0, r30
    28ba:	3a f0       	brmi	.+14     	; 0x28ca <__divsf3_pse+0x3a>
    28bc:	e0 e8       	ldi	r30, 0x80	; 128
    28be:	30 d0       	rcall	.+96     	; 0x2920 <__divsf3_pse+0x90>
    28c0:	91 50       	subi	r25, 0x01	; 1
    28c2:	50 40       	sbci	r21, 0x00	; 0
    28c4:	e6 95       	lsr	r30
    28c6:	00 1c       	adc	r0, r0
    28c8:	ca f7       	brpl	.-14     	; 0x28bc <__divsf3_pse+0x2c>
    28ca:	29 d0       	rcall	.+82     	; 0x291e <__divsf3_pse+0x8e>
    28cc:	fe 2f       	mov	r31, r30
    28ce:	27 d0       	rcall	.+78     	; 0x291e <__divsf3_pse+0x8e>
    28d0:	66 0f       	add	r22, r22
    28d2:	77 1f       	adc	r23, r23
    28d4:	88 1f       	adc	r24, r24
    28d6:	bb 1f       	adc	r27, r27
    28d8:	26 17       	cp	r18, r22
    28da:	37 07       	cpc	r19, r23
    28dc:	48 07       	cpc	r20, r24
    28de:	ab 07       	cpc	r26, r27
    28e0:	b0 e8       	ldi	r27, 0x80	; 128
    28e2:	09 f0       	breq	.+2      	; 0x28e6 <__divsf3_pse+0x56>
    28e4:	bb 0b       	sbc	r27, r27
    28e6:	80 2d       	mov	r24, r0
    28e8:	bf 01       	movw	r22, r30
    28ea:	ff 27       	eor	r31, r31
    28ec:	93 58       	subi	r25, 0x83	; 131
    28ee:	5f 4f       	sbci	r21, 0xFF	; 255
    28f0:	2a f0       	brmi	.+10     	; 0x28fc <__divsf3_pse+0x6c>
    28f2:	9e 3f       	cpi	r25, 0xFE	; 254
    28f4:	51 05       	cpc	r21, r1
    28f6:	68 f0       	brcs	.+26     	; 0x2912 <__divsf3_pse+0x82>
    28f8:	8d c0       	rjmp	.+282    	; 0x2a14 <__fp_inf>
    28fa:	d7 c0       	rjmp	.+430    	; 0x2aaa <__fp_szero>
    28fc:	5f 3f       	cpi	r21, 0xFF	; 255
    28fe:	ec f3       	brlt	.-6      	; 0x28fa <__divsf3_pse+0x6a>
    2900:	98 3e       	cpi	r25, 0xE8	; 232
    2902:	dc f3       	brlt	.-10     	; 0x28fa <__divsf3_pse+0x6a>
    2904:	86 95       	lsr	r24
    2906:	77 95       	ror	r23
    2908:	67 95       	ror	r22
    290a:	b7 95       	ror	r27
    290c:	f7 95       	ror	r31
    290e:	9f 5f       	subi	r25, 0xFF	; 255
    2910:	c9 f7       	brne	.-14     	; 0x2904 <__divsf3_pse+0x74>
    2912:	88 0f       	add	r24, r24
    2914:	91 1d       	adc	r25, r1
    2916:	96 95       	lsr	r25
    2918:	87 95       	ror	r24
    291a:	97 f9       	bld	r25, 7
    291c:	08 95       	ret
    291e:	e1 e0       	ldi	r30, 0x01	; 1
    2920:	66 0f       	add	r22, r22
    2922:	77 1f       	adc	r23, r23
    2924:	88 1f       	adc	r24, r24
    2926:	bb 1f       	adc	r27, r27
    2928:	62 17       	cp	r22, r18
    292a:	73 07       	cpc	r23, r19
    292c:	84 07       	cpc	r24, r20
    292e:	ba 07       	cpc	r27, r26
    2930:	20 f0       	brcs	.+8      	; 0x293a <__divsf3_pse+0xaa>
    2932:	62 1b       	sub	r22, r18
    2934:	73 0b       	sbc	r23, r19
    2936:	84 0b       	sbc	r24, r20
    2938:	ba 0b       	sbc	r27, r26
    293a:	ee 1f       	adc	r30, r30
    293c:	88 f7       	brcc	.-30     	; 0x2920 <__divsf3_pse+0x90>
    293e:	e0 95       	com	r30
    2940:	08 95       	ret

00002942 <__fixunssfsi>:
    2942:	98 d0       	rcall	.+304    	; 0x2a74 <__fp_splitA>
    2944:	88 f0       	brcs	.+34     	; 0x2968 <__fixunssfsi+0x26>
    2946:	9f 57       	subi	r25, 0x7F	; 127
    2948:	90 f0       	brcs	.+36     	; 0x296e <__fixunssfsi+0x2c>
    294a:	b9 2f       	mov	r27, r25
    294c:	99 27       	eor	r25, r25
    294e:	b7 51       	subi	r27, 0x17	; 23
    2950:	a0 f0       	brcs	.+40     	; 0x297a <__fixunssfsi+0x38>
    2952:	d1 f0       	breq	.+52     	; 0x2988 <__fixunssfsi+0x46>
    2954:	66 0f       	add	r22, r22
    2956:	77 1f       	adc	r23, r23
    2958:	88 1f       	adc	r24, r24
    295a:	99 1f       	adc	r25, r25
    295c:	1a f0       	brmi	.+6      	; 0x2964 <__fixunssfsi+0x22>
    295e:	ba 95       	dec	r27
    2960:	c9 f7       	brne	.-14     	; 0x2954 <__fixunssfsi+0x12>
    2962:	12 c0       	rjmp	.+36     	; 0x2988 <__fixunssfsi+0x46>
    2964:	b1 30       	cpi	r27, 0x01	; 1
    2966:	81 f0       	breq	.+32     	; 0x2988 <__fixunssfsi+0x46>
    2968:	9f d0       	rcall	.+318    	; 0x2aa8 <__fp_zero>
    296a:	b1 e0       	ldi	r27, 0x01	; 1
    296c:	08 95       	ret
    296e:	9c c0       	rjmp	.+312    	; 0x2aa8 <__fp_zero>
    2970:	67 2f       	mov	r22, r23
    2972:	78 2f       	mov	r23, r24
    2974:	88 27       	eor	r24, r24
    2976:	b8 5f       	subi	r27, 0xF8	; 248
    2978:	39 f0       	breq	.+14     	; 0x2988 <__fixunssfsi+0x46>
    297a:	b9 3f       	cpi	r27, 0xF9	; 249
    297c:	cc f3       	brlt	.-14     	; 0x2970 <__fixunssfsi+0x2e>
    297e:	86 95       	lsr	r24
    2980:	77 95       	ror	r23
    2982:	67 95       	ror	r22
    2984:	b3 95       	inc	r27
    2986:	d9 f7       	brne	.-10     	; 0x297e <__fixunssfsi+0x3c>
    2988:	3e f4       	brtc	.+14     	; 0x2998 <__fixunssfsi+0x56>
    298a:	90 95       	com	r25
    298c:	80 95       	com	r24
    298e:	70 95       	com	r23
    2990:	61 95       	neg	r22
    2992:	7f 4f       	sbci	r23, 0xFF	; 255
    2994:	8f 4f       	sbci	r24, 0xFF	; 255
    2996:	9f 4f       	sbci	r25, 0xFF	; 255
    2998:	08 95       	ret

0000299a <__floatunsisf>:
    299a:	e8 94       	clt
    299c:	09 c0       	rjmp	.+18     	; 0x29b0 <__floatsisf+0x12>

0000299e <__floatsisf>:
    299e:	97 fb       	bst	r25, 7
    29a0:	3e f4       	brtc	.+14     	; 0x29b0 <__floatsisf+0x12>
    29a2:	90 95       	com	r25
    29a4:	80 95       	com	r24
    29a6:	70 95       	com	r23
    29a8:	61 95       	neg	r22
    29aa:	7f 4f       	sbci	r23, 0xFF	; 255
    29ac:	8f 4f       	sbci	r24, 0xFF	; 255
    29ae:	9f 4f       	sbci	r25, 0xFF	; 255
    29b0:	99 23       	and	r25, r25
    29b2:	a9 f0       	breq	.+42     	; 0x29de <__floatsisf+0x40>
    29b4:	f9 2f       	mov	r31, r25
    29b6:	96 e9       	ldi	r25, 0x96	; 150
    29b8:	bb 27       	eor	r27, r27
    29ba:	93 95       	inc	r25
    29bc:	f6 95       	lsr	r31
    29be:	87 95       	ror	r24
    29c0:	77 95       	ror	r23
    29c2:	67 95       	ror	r22
    29c4:	b7 95       	ror	r27
    29c6:	f1 11       	cpse	r31, r1
    29c8:	f8 cf       	rjmp	.-16     	; 0x29ba <__floatsisf+0x1c>
    29ca:	fa f4       	brpl	.+62     	; 0x2a0a <__floatsisf+0x6c>
    29cc:	bb 0f       	add	r27, r27
    29ce:	11 f4       	brne	.+4      	; 0x29d4 <__floatsisf+0x36>
    29d0:	60 ff       	sbrs	r22, 0
    29d2:	1b c0       	rjmp	.+54     	; 0x2a0a <__floatsisf+0x6c>
    29d4:	6f 5f       	subi	r22, 0xFF	; 255
    29d6:	7f 4f       	sbci	r23, 0xFF	; 255
    29d8:	8f 4f       	sbci	r24, 0xFF	; 255
    29da:	9f 4f       	sbci	r25, 0xFF	; 255
    29dc:	16 c0       	rjmp	.+44     	; 0x2a0a <__floatsisf+0x6c>
    29de:	88 23       	and	r24, r24
    29e0:	11 f0       	breq	.+4      	; 0x29e6 <__floatsisf+0x48>
    29e2:	96 e9       	ldi	r25, 0x96	; 150
    29e4:	11 c0       	rjmp	.+34     	; 0x2a08 <__floatsisf+0x6a>
    29e6:	77 23       	and	r23, r23
    29e8:	21 f0       	breq	.+8      	; 0x29f2 <__floatsisf+0x54>
    29ea:	9e e8       	ldi	r25, 0x8E	; 142
    29ec:	87 2f       	mov	r24, r23
    29ee:	76 2f       	mov	r23, r22
    29f0:	05 c0       	rjmp	.+10     	; 0x29fc <__floatsisf+0x5e>
    29f2:	66 23       	and	r22, r22
    29f4:	71 f0       	breq	.+28     	; 0x2a12 <__floatsisf+0x74>
    29f6:	96 e8       	ldi	r25, 0x86	; 134
    29f8:	86 2f       	mov	r24, r22
    29fa:	70 e0       	ldi	r23, 0x00	; 0
    29fc:	60 e0       	ldi	r22, 0x00	; 0
    29fe:	2a f0       	brmi	.+10     	; 0x2a0a <__floatsisf+0x6c>
    2a00:	9a 95       	dec	r25
    2a02:	66 0f       	add	r22, r22
    2a04:	77 1f       	adc	r23, r23
    2a06:	88 1f       	adc	r24, r24
    2a08:	da f7       	brpl	.-10     	; 0x2a00 <__floatsisf+0x62>
    2a0a:	88 0f       	add	r24, r24
    2a0c:	96 95       	lsr	r25
    2a0e:	87 95       	ror	r24
    2a10:	97 f9       	bld	r25, 7
    2a12:	08 95       	ret

00002a14 <__fp_inf>:
    2a14:	97 f9       	bld	r25, 7
    2a16:	9f 67       	ori	r25, 0x7F	; 127
    2a18:	80 e8       	ldi	r24, 0x80	; 128
    2a1a:	70 e0       	ldi	r23, 0x00	; 0
    2a1c:	60 e0       	ldi	r22, 0x00	; 0
    2a1e:	08 95       	ret

00002a20 <__fp_nan>:
    2a20:	9f ef       	ldi	r25, 0xFF	; 255
    2a22:	80 ec       	ldi	r24, 0xC0	; 192
    2a24:	08 95       	ret

00002a26 <__fp_pscA>:
    2a26:	00 24       	eor	r0, r0
    2a28:	0a 94       	dec	r0
    2a2a:	16 16       	cp	r1, r22
    2a2c:	17 06       	cpc	r1, r23
    2a2e:	18 06       	cpc	r1, r24
    2a30:	09 06       	cpc	r0, r25
    2a32:	08 95       	ret

00002a34 <__fp_pscB>:
    2a34:	00 24       	eor	r0, r0
    2a36:	0a 94       	dec	r0
    2a38:	12 16       	cp	r1, r18
    2a3a:	13 06       	cpc	r1, r19
    2a3c:	14 06       	cpc	r1, r20
    2a3e:	05 06       	cpc	r0, r21
    2a40:	08 95       	ret

00002a42 <__fp_round>:
    2a42:	09 2e       	mov	r0, r25
    2a44:	03 94       	inc	r0
    2a46:	00 0c       	add	r0, r0
    2a48:	11 f4       	brne	.+4      	; 0x2a4e <__fp_round+0xc>
    2a4a:	88 23       	and	r24, r24
    2a4c:	52 f0       	brmi	.+20     	; 0x2a62 <__fp_round+0x20>
    2a4e:	bb 0f       	add	r27, r27
    2a50:	40 f4       	brcc	.+16     	; 0x2a62 <__fp_round+0x20>
    2a52:	bf 2b       	or	r27, r31
    2a54:	11 f4       	brne	.+4      	; 0x2a5a <__fp_round+0x18>
    2a56:	60 ff       	sbrs	r22, 0
    2a58:	04 c0       	rjmp	.+8      	; 0x2a62 <__fp_round+0x20>
    2a5a:	6f 5f       	subi	r22, 0xFF	; 255
    2a5c:	7f 4f       	sbci	r23, 0xFF	; 255
    2a5e:	8f 4f       	sbci	r24, 0xFF	; 255
    2a60:	9f 4f       	sbci	r25, 0xFF	; 255
    2a62:	08 95       	ret

00002a64 <__fp_split3>:
    2a64:	57 fd       	sbrc	r21, 7
    2a66:	90 58       	subi	r25, 0x80	; 128
    2a68:	44 0f       	add	r20, r20
    2a6a:	55 1f       	adc	r21, r21
    2a6c:	59 f0       	breq	.+22     	; 0x2a84 <__fp_splitA+0x10>
    2a6e:	5f 3f       	cpi	r21, 0xFF	; 255
    2a70:	71 f0       	breq	.+28     	; 0x2a8e <__fp_splitA+0x1a>
    2a72:	47 95       	ror	r20

00002a74 <__fp_splitA>:
    2a74:	88 0f       	add	r24, r24
    2a76:	97 fb       	bst	r25, 7
    2a78:	99 1f       	adc	r25, r25
    2a7a:	61 f0       	breq	.+24     	; 0x2a94 <__fp_splitA+0x20>
    2a7c:	9f 3f       	cpi	r25, 0xFF	; 255
    2a7e:	79 f0       	breq	.+30     	; 0x2a9e <__fp_splitA+0x2a>
    2a80:	87 95       	ror	r24
    2a82:	08 95       	ret
    2a84:	12 16       	cp	r1, r18
    2a86:	13 06       	cpc	r1, r19
    2a88:	14 06       	cpc	r1, r20
    2a8a:	55 1f       	adc	r21, r21
    2a8c:	f2 cf       	rjmp	.-28     	; 0x2a72 <__fp_split3+0xe>
    2a8e:	46 95       	lsr	r20
    2a90:	f1 df       	rcall	.-30     	; 0x2a74 <__fp_splitA>
    2a92:	08 c0       	rjmp	.+16     	; 0x2aa4 <__fp_splitA+0x30>
    2a94:	16 16       	cp	r1, r22
    2a96:	17 06       	cpc	r1, r23
    2a98:	18 06       	cpc	r1, r24
    2a9a:	99 1f       	adc	r25, r25
    2a9c:	f1 cf       	rjmp	.-30     	; 0x2a80 <__fp_splitA+0xc>
    2a9e:	86 95       	lsr	r24
    2aa0:	71 05       	cpc	r23, r1
    2aa2:	61 05       	cpc	r22, r1
    2aa4:	08 94       	sec
    2aa6:	08 95       	ret

00002aa8 <__fp_zero>:
    2aa8:	e8 94       	clt

00002aaa <__fp_szero>:
    2aaa:	bb 27       	eor	r27, r27
    2aac:	66 27       	eor	r22, r22
    2aae:	77 27       	eor	r23, r23
    2ab0:	cb 01       	movw	r24, r22
    2ab2:	97 f9       	bld	r25, 7
    2ab4:	08 95       	ret

00002ab6 <__divmodhi4>:
    2ab6:	97 fb       	bst	r25, 7
    2ab8:	07 2e       	mov	r0, r23
    2aba:	16 f4       	brtc	.+4      	; 0x2ac0 <__divmodhi4+0xa>
    2abc:	00 94       	com	r0
    2abe:	06 d0       	rcall	.+12     	; 0x2acc <__divmodhi4_neg1>
    2ac0:	77 fd       	sbrc	r23, 7
    2ac2:	08 d0       	rcall	.+16     	; 0x2ad4 <__divmodhi4_neg2>
    2ac4:	36 d0       	rcall	.+108    	; 0x2b32 <__udivmodhi4>
    2ac6:	07 fc       	sbrc	r0, 7
    2ac8:	05 d0       	rcall	.+10     	; 0x2ad4 <__divmodhi4_neg2>
    2aca:	3e f4       	brtc	.+14     	; 0x2ada <__divmodhi4_exit>

00002acc <__divmodhi4_neg1>:
    2acc:	90 95       	com	r25
    2ace:	81 95       	neg	r24
    2ad0:	9f 4f       	sbci	r25, 0xFF	; 255
    2ad2:	08 95       	ret

00002ad4 <__divmodhi4_neg2>:
    2ad4:	70 95       	com	r23
    2ad6:	61 95       	neg	r22
    2ad8:	7f 4f       	sbci	r23, 0xFF	; 255

00002ada <__divmodhi4_exit>:
    2ada:	08 95       	ret

00002adc <__udivmodsi4>:
    2adc:	a1 e2       	ldi	r26, 0x21	; 33
    2ade:	1a 2e       	mov	r1, r26
    2ae0:	aa 1b       	sub	r26, r26
    2ae2:	bb 1b       	sub	r27, r27
    2ae4:	fd 01       	movw	r30, r26
    2ae6:	0d c0       	rjmp	.+26     	; 0x2b02 <__udivmodsi4_ep>

00002ae8 <__udivmodsi4_loop>:
    2ae8:	aa 1f       	adc	r26, r26
    2aea:	bb 1f       	adc	r27, r27
    2aec:	ee 1f       	adc	r30, r30
    2aee:	ff 1f       	adc	r31, r31
    2af0:	a2 17       	cp	r26, r18
    2af2:	b3 07       	cpc	r27, r19
    2af4:	e4 07       	cpc	r30, r20
    2af6:	f5 07       	cpc	r31, r21
    2af8:	20 f0       	brcs	.+8      	; 0x2b02 <__udivmodsi4_ep>
    2afa:	a2 1b       	sub	r26, r18
    2afc:	b3 0b       	sbc	r27, r19
    2afe:	e4 0b       	sbc	r30, r20
    2b00:	f5 0b       	sbc	r31, r21

00002b02 <__udivmodsi4_ep>:
    2b02:	66 1f       	adc	r22, r22
    2b04:	77 1f       	adc	r23, r23
    2b06:	88 1f       	adc	r24, r24
    2b08:	99 1f       	adc	r25, r25
    2b0a:	1a 94       	dec	r1
    2b0c:	69 f7       	brne	.-38     	; 0x2ae8 <__udivmodsi4_loop>
    2b0e:	60 95       	com	r22
    2b10:	70 95       	com	r23
    2b12:	80 95       	com	r24
    2b14:	90 95       	com	r25
    2b16:	9b 01       	movw	r18, r22
    2b18:	ac 01       	movw	r20, r24
    2b1a:	bd 01       	movw	r22, r26
    2b1c:	cf 01       	movw	r24, r30
    2b1e:	08 95       	ret

00002b20 <__tablejump2__>:
    2b20:	ee 0f       	add	r30, r30
    2b22:	ff 1f       	adc	r31, r31
    2b24:	00 24       	eor	r0, r0
    2b26:	00 1c       	adc	r0, r0
    2b28:	0b be       	out	0x3b, r0	; 59
    2b2a:	07 90       	elpm	r0, Z+
    2b2c:	f6 91       	elpm	r31, Z
    2b2e:	e0 2d       	mov	r30, r0
    2b30:	09 94       	ijmp

00002b32 <__udivmodhi4>:
    2b32:	aa 1b       	sub	r26, r26
    2b34:	bb 1b       	sub	r27, r27
    2b36:	51 e1       	ldi	r21, 0x11	; 17
    2b38:	07 c0       	rjmp	.+14     	; 0x2b48 <__udivmodhi4_ep>

00002b3a <__udivmodhi4_loop>:
    2b3a:	aa 1f       	adc	r26, r26
    2b3c:	bb 1f       	adc	r27, r27
    2b3e:	a6 17       	cp	r26, r22
    2b40:	b7 07       	cpc	r27, r23
    2b42:	10 f0       	brcs	.+4      	; 0x2b48 <__udivmodhi4_ep>
    2b44:	a6 1b       	sub	r26, r22
    2b46:	b7 0b       	sbc	r27, r23

00002b48 <__udivmodhi4_ep>:
    2b48:	88 1f       	adc	r24, r24
    2b4a:	99 1f       	adc	r25, r25
    2b4c:	5a 95       	dec	r21
    2b4e:	a9 f7       	brne	.-22     	; 0x2b3a <__udivmodhi4_loop>
    2b50:	80 95       	com	r24
    2b52:	90 95       	com	r25
    2b54:	bc 01       	movw	r22, r24
    2b56:	cd 01       	movw	r24, r26
    2b58:	08 95       	ret

00002b5a <_exit>:
    2b5a:	f8 94       	cli

00002b5c <__stop_program>:
    2b5c:	ff cf       	rjmp	.-2      	; 0x2b5c <__stop_program>
