
ATMEGA_fw.elf:     file format elf32-avr

Sections:
Idx Name          Size      VMA       LMA       File off  Algn
  0 .data         00000098  00800100  00001c96  00001d2a  2**0
                  CONTENTS, ALLOC, LOAD, DATA
  1 .text         00001c96  00000000  00000000  00000094  2**1
                  CONTENTS, ALLOC, LOAD, READONLY, CODE
  2 .bss          00000092  00800198  00800198  00001dc2  2**0
                  ALLOC
  3 .comment      00000030  00000000  00000000  00001dc2  2**0
                  CONTENTS, READONLY
  4 .note.gnu.avr.deviceinfo 0000003c  00000000  00000000  00001df4  2**2
                  CONTENTS, READONLY
  5 .debug_aranges 000004d0  00000000  00000000  00001e30  2**0
                  CONTENTS, READONLY, DEBUGGING
  6 .debug_info   00003ee2  00000000  00000000  00002300  2**0
                  CONTENTS, READONLY, DEBUGGING
  7 .debug_abbrev 000016f6  00000000  00000000  000061e2  2**0
                  CONTENTS, READONLY, DEBUGGING
  8 .debug_line   00002a70  00000000  00000000  000078d8  2**0
                  CONTENTS, READONLY, DEBUGGING
  9 .debug_frame  00000c70  00000000  00000000  0000a348  2**2
                  CONTENTS, READONLY, DEBUGGING
 10 .debug_str    0000109c  00000000  00000000  0000afb8  2**0
                  CONTENTS, READONLY, DEBUGGING
 11 .debug_loc    00002da4  00000000  00000000  0000c054  2**0
                  CONTENTS, READONLY, DEBUGGING
 12 .debug_ranges 00000420  00000000  00000000  0000edf8  2**0
                  CONTENTS, READONLY, DEBUGGING

Disassembly of section .text:

00000000 <__vectors>:
       0:	77 c0       	rjmp	.+238    	; 0xf0 <__ctors_end>
       2:	00 00       	nop
       4:	94 c0       	rjmp	.+296    	; 0x12e <__bad_interrupt>
       6:	00 00       	nop
       8:	92 c0       	rjmp	.+292    	; 0x12e <__bad_interrupt>
       a:	00 00       	nop
       c:	90 c0       	rjmp	.+288    	; 0x12e <__bad_interrupt>
       e:	00 00       	nop
      10:	8e c0       	rjmp	.+284    	; 0x12e <__bad_interrupt>
      12:	00 00       	nop
      14:	8c c0       	rjmp	.+280    	; 0x12e <__bad_interrupt>
      16:	00 00       	nop
      18:	8a c0       	rjmp	.+276    	; 0x12e <__bad_interrupt>
      1a:	00 00       	nop
      1c:	88 c0       	rjmp	.+272    	; 0x12e <__bad_interrupt>
      1e:	00 00       	nop
      20:	86 c0       	rjmp	.+268    	; 0x12e <__bad_interrupt>
      22:	00 00       	nop
      24:	af c1       	rjmp	.+862    	; 0x384 <__vector_9>
      26:	00 00       	nop
      28:	83 c1       	rjmp	.+774    	; 0x330 <__vector_10>
      2a:	00 00       	nop
      2c:	77 c1       	rjmp	.+750    	; 0x31c <__vector_11>
      2e:	00 00       	nop
      30:	57 c1       	rjmp	.+686    	; 0x2e0 <__vector_12>
      32:	00 00       	nop
      34:	5f c1       	rjmp	.+702    	; 0x2f4 <__vector_13>
      36:	00 00       	nop
      38:	49 c1       	rjmp	.+658    	; 0x2cc <__vector_14>
      3a:	00 00       	nop
      3c:	1d c1       	rjmp	.+570    	; 0x278 <__vector_15>
      3e:	00 00       	nop
      40:	f1 c0       	rjmp	.+482    	; 0x224 <__vector_16>
      42:	00 00       	nop
      44:	74 c0       	rjmp	.+232    	; 0x12e <__bad_interrupt>
      46:	00 00       	nop
      48:	99 c0       	rjmp	.+306    	; 0x17c <__vector_18>
      4a:	00 00       	nop
      4c:	70 c0       	rjmp	.+224    	; 0x12e <__bad_interrupt>
      4e:	00 00       	nop
      50:	bf c0       	rjmp	.+382    	; 0x1d0 <__vector_20>
      52:	00 00       	nop
      54:	6c c0       	rjmp	.+216    	; 0x12e <__bad_interrupt>
      56:	00 00       	nop
      58:	6a c0       	rjmp	.+212    	; 0x12e <__bad_interrupt>
      5a:	00 00       	nop
      5c:	68 c0       	rjmp	.+208    	; 0x12e <__bad_interrupt>
      5e:	00 00       	nop
      60:	53 c1       	rjmp	.+678    	; 0x308 <__vector_24>
      62:	00 00       	nop
      64:	e1 c1       	rjmp	.+962    	; 0x428 <__vector_25>
      66:	00 00       	nop
      68:	c1 c1       	rjmp	.+898    	; 0x3ec <__vector_26>
      6a:	00 00       	nop
      6c:	c9 c1       	rjmp	.+914    	; 0x400 <__vector_27>
      6e:	00 00       	nop
      70:	d1 c1       	rjmp	.+930    	; 0x414 <__vector_28>
      72:	00 00       	nop
      74:	b1 c1       	rjmp	.+866    	; 0x3d8 <__vector_29>
      76:	00 00       	nop
      78:	5a c0       	rjmp	.+180    	; 0x12e <__bad_interrupt>
      7a:	00 00       	nop
      7c:	58 c0       	rjmp	.+176    	; 0x12e <__bad_interrupt>
      7e:	00 00       	nop
      80:	56 c0       	rjmp	.+172    	; 0x12e <__bad_interrupt>
      82:	00 00       	nop
      84:	54 c0       	rjmp	.+168    	; 0x12e <__bad_interrupt>
      86:	00 00       	nop
      88:	52 c0       	rjmp	.+164    	; 0x12e <__bad_interrupt>
      8a:	00 00       	nop
      8c:	c6 04       	cpc	r12, r6
      8e:	db 04       	cpc	r13, r11
      90:	f0 04       	cpc	r15, r0
      92:	05 05       	cpc	r16, r5
      94:	1a 05       	cpc	r17, r10
      96:	2f 05       	cpc	r18, r15
      98:	44 05       	cpc	r20, r4
      9a:	aa 07       	cpc	r26, r26
      9c:	c5 07       	cpc	r28, r21
      9e:	e0 07       	cpc	r30, r16
      a0:	fb 07       	cpc	r31, r27
      a2:	3f 09       	sbc	r19, r15
      a4:	79 09       	sbc	r23, r9
      a6:	b2 09       	sbc	r27, r2
      a8:	b2 09       	sbc	r27, r2
      aa:	16 08       	sbc	r1, r6
      ac:	82 08       	sbc	r8, r2
      ae:	67 08       	sbc	r6, r7
      b0:	31 08       	sbc	r3, r1
      b2:	4c 08       	sbc	r4, r12
      b4:	9d 08       	sbc	r9, r13
      b6:	b8 08       	sbc	r11, r8
      b8:	d3 08       	sbc	r13, r3
      ba:	ee 08       	sbc	r14, r14
      bc:	09 09       	sbc	r16, r9
      be:	24 09       	sbc	r18, r4
      c0:	bd 09       	sbc	r27, r13
      c2:	ec 09       	sbc	r30, r12
      c4:	1b 0a       	sbc	r1, r27
      c6:	4a 0a       	sbc	r4, r26
      c8:	06 0b       	sbc	r16, r22
      ca:	35 0b       	sbc	r19, r21
      cc:	79 0a       	sbc	r7, r25
      ce:	a8 0a       	sbc	r10, r24
      d0:	d7 0a       	sbc	r13, r23
      d2:	ec 09       	sbc	r30, r12
      d4:	1b 0a       	sbc	r1, r27
      d6:	4a 0a       	sbc	r4, r26
      d8:	06 0b       	sbc	r16, r22
      da:	35 0b       	sbc	r19, r21
      dc:	79 0a       	sbc	r7, r25
      de:	a8 0a       	sbc	r10, r24
      e0:	d7 0a       	sbc	r13, r23
      e2:	bf 0b       	sbc	r27, r31
      e4:	d2 0b       	sbc	r29, r18
      e6:	e5 0b       	sbc	r30, r21
      e8:	f8 0b       	sbc	r31, r24
      ea:	0b 0c       	add	r0, r11
      ec:	1e 0c       	add	r1, r14
      ee:	31 0c       	add	r3, r1

000000f0 <__ctors_end>:
      f0:	11 24       	eor	r1, r1
      f2:	1f be       	out	0x3f, r1	; 63
      f4:	cf ef       	ldi	r28, 0xFF	; 255
      f6:	d0 e1       	ldi	r29, 0x10	; 16
      f8:	de bf       	out	0x3e, r29	; 62
      fa:	cd bf       	out	0x3d, r28	; 61

000000fc <__do_copy_data>:
      fc:	11 e0       	ldi	r17, 0x01	; 1
      fe:	a0 e0       	ldi	r26, 0x00	; 0
     100:	b1 e0       	ldi	r27, 0x01	; 1
     102:	e6 e9       	ldi	r30, 0x96	; 150
     104:	fc e1       	ldi	r31, 0x1C	; 28
     106:	00 e0       	ldi	r16, 0x00	; 0
     108:	0b bf       	out	0x3b, r16	; 59
     10a:	02 c0       	rjmp	.+4      	; 0x110 <__do_copy_data+0x14>
     10c:	07 90       	elpm	r0, Z+
     10e:	0d 92       	st	X+, r0
     110:	a8 39       	cpi	r26, 0x98	; 152
     112:	b1 07       	cpc	r27, r17
     114:	d9 f7       	brne	.-10     	; 0x10c <__do_copy_data+0x10>

00000116 <__do_clear_bss>:
     116:	22 e0       	ldi	r18, 0x02	; 2
     118:	a8 e9       	ldi	r26, 0x98	; 152
     11a:	b1 e0       	ldi	r27, 0x01	; 1
     11c:	01 c0       	rjmp	.+2      	; 0x120 <.do_clear_bss_start>

0000011e <.do_clear_bss_loop>:
     11e:	1d 92       	st	X+, r1

00000120 <.do_clear_bss_start>:
     120:	aa 32       	cpi	r26, 0x2A	; 42
     122:	b2 07       	cpc	r27, r18
     124:	e1 f7       	brne	.-8      	; 0x11e <.do_clear_bss_loop>
     126:	0e 94 15 0e 	call	0x1c2a	; 0x1c2a <main>
     12a:	0c 94 49 0e 	jmp	0x1c92	; 0x1c92 <_exit>

0000012e <__bad_interrupt>:
     12e:	68 cf       	rjmp	.-304    	; 0x0 <__vectors>

00000130 <apInit>:
void apInit(void)
{
	//uartOpen(_DEF_UART0, 115200);
	//timerStart(_DEF_TIM0, 0, 124, 0);
	//timerStart(_DEF_TIM1, 0, 1, 0);
	timerStart(_DEF_TIM2, 0, 250, 5000);
     130:	28 e8       	ldi	r18, 0x88	; 136
     132:	33 e1       	ldi	r19, 0x13	; 19
     134:	4a ef       	ldi	r20, 0xFA	; 250
     136:	50 e0       	ldi	r21, 0x00	; 0
     138:	60 e0       	ldi	r22, 0x00	; 0
     13a:	70 e0       	ldi	r23, 0x00	; 0
     13c:	82 e0       	ldi	r24, 0x02	; 2
     13e:	8c d2       	rcall	.+1304   	; 0x658 <timerStart>
	//a4988Start(_DEF_A4988_0, _DEF_CW, 124);
	sei();
     140:	78 94       	sei
     142:	08 95       	ret

00000144 <apMain>:
	#else
		//round up by default
		__ticks_dc = (uint32_t)(ceil(fabs(__tmp)));
	#endif

	__builtin_avr_delay_cycles(__ticks_dc);
     144:	2f ef       	ldi	r18, 0xFF	; 255
     146:	89 e6       	ldi	r24, 0x69	; 105
     148:	98 e1       	ldi	r25, 0x18	; 24
     14a:	21 50       	subi	r18, 0x01	; 1
     14c:	80 40       	sbci	r24, 0x00	; 0
     14e:	90 40       	sbci	r25, 0x00	; 0
     150:	e1 f7       	brne	.-8      	; 0x14a <apMain+0x6>
     152:	00 c0       	rjmp	.+0      	; 0x154 <apMain+0x10>
     154:	00 00       	nop
     156:	2f ef       	ldi	r18, 0xFF	; 255
     158:	89 e6       	ldi	r24, 0x69	; 105
     15a:	98 e1       	ldi	r25, 0x18	; 24
     15c:	21 50       	subi	r18, 0x01	; 1
     15e:	80 40       	sbci	r24, 0x00	; 0
     160:	90 40       	sbci	r25, 0x00	; 0
     162:	e1 f7       	brne	.-8      	; 0x15c <apMain+0x18>
     164:	00 c0       	rjmp	.+0      	; 0x166 <apMain+0x22>
     166:	00 00       	nop
     168:	2f ef       	ldi	r18, 0xFF	; 255
     16a:	89 e6       	ldi	r24, 0x69	; 105
     16c:	98 e1       	ldi	r25, 0x18	; 24
     16e:	21 50       	subi	r18, 0x01	; 1
     170:	80 40       	sbci	r24, 0x00	; 0
     172:	90 40       	sbci	r25, 0x00	; 0
     174:	e1 f7       	brne	.-8      	; 0x16e <apMain+0x2a>
     176:	00 c0       	rjmp	.+0      	; 0x178 <apMain+0x34>
     178:	00 00       	nop
     17a:	e4 cf       	rjmp	.-56     	; 0x144 <apMain>

0000017c <__vector_18>:


#ifdef _USE_HW_UART
extern UART_HandleTypeDef huart1;
ISR(USART0_RX_vect)
{
     17c:	1f 92       	push	r1
     17e:	0f 92       	push	r0
     180:	0f b6       	in	r0, 0x3f	; 63
     182:	0f 92       	push	r0
     184:	11 24       	eor	r1, r1
     186:	0b b6       	in	r0, 0x3b	; 59
     188:	0f 92       	push	r0
     18a:	2f 93       	push	r18
     18c:	3f 93       	push	r19
     18e:	4f 93       	push	r20
     190:	5f 93       	push	r21
     192:	6f 93       	push	r22
     194:	7f 93       	push	r23
     196:	8f 93       	push	r24
     198:	9f 93       	push	r25
     19a:	af 93       	push	r26
     19c:	bf 93       	push	r27
     19e:	ef 93       	push	r30
     1a0:	ff 93       	push	r31
	UART_RxIRQHandler(&huart1);
     1a2:	83 e1       	ldi	r24, 0x13	; 19
     1a4:	92 e0       	ldi	r25, 0x02	; 2
     1a6:	0e 94 ff 0d 	call	0x1bfe	; 0x1bfe <UART_RxIRQHandler>
}
     1aa:	ff 91       	pop	r31
     1ac:	ef 91       	pop	r30
     1ae:	bf 91       	pop	r27
     1b0:	af 91       	pop	r26
     1b2:	9f 91       	pop	r25
     1b4:	8f 91       	pop	r24
     1b6:	7f 91       	pop	r23
     1b8:	6f 91       	pop	r22
     1ba:	5f 91       	pop	r21
     1bc:	4f 91       	pop	r20
     1be:	3f 91       	pop	r19
     1c0:	2f 91       	pop	r18
     1c2:	0f 90       	pop	r0
     1c4:	0b be       	out	0x3b, r0	; 59
     1c6:	0f 90       	pop	r0
     1c8:	0f be       	out	0x3f, r0	; 63
     1ca:	0f 90       	pop	r0
     1cc:	1f 90       	pop	r1
     1ce:	18 95       	reti

000001d0 <__vector_20>:

ISR(USART0_TX_vect)
{
     1d0:	1f 92       	push	r1
     1d2:	0f 92       	push	r0
     1d4:	0f b6       	in	r0, 0x3f	; 63
     1d6:	0f 92       	push	r0
     1d8:	11 24       	eor	r1, r1
     1da:	0b b6       	in	r0, 0x3b	; 59
     1dc:	0f 92       	push	r0
     1de:	2f 93       	push	r18
     1e0:	3f 93       	push	r19
     1e2:	4f 93       	push	r20
     1e4:	5f 93       	push	r21
     1e6:	6f 93       	push	r22
     1e8:	7f 93       	push	r23
     1ea:	8f 93       	push	r24
     1ec:	9f 93       	push	r25
     1ee:	af 93       	push	r26
     1f0:	bf 93       	push	r27
     1f2:	ef 93       	push	r30
     1f4:	ff 93       	push	r31
	UART_TxIRQHandler(&huart1);
     1f6:	83 e1       	ldi	r24, 0x13	; 19
     1f8:	92 e0       	ldi	r25, 0x02	; 2
     1fa:	0e 94 fc 0d 	call	0x1bf8	; 0x1bf8 <UART_TxIRQHandler>
}
     1fe:	ff 91       	pop	r31
     200:	ef 91       	pop	r30
     202:	bf 91       	pop	r27
     204:	af 91       	pop	r26
     206:	9f 91       	pop	r25
     208:	8f 91       	pop	r24
     20a:	7f 91       	pop	r23
     20c:	6f 91       	pop	r22
     20e:	5f 91       	pop	r21
     210:	4f 91       	pop	r20
     212:	3f 91       	pop	r19
     214:	2f 91       	pop	r18
     216:	0f 90       	pop	r0
     218:	0b be       	out	0x3b, r0	; 59
     21a:	0f 90       	pop	r0
     21c:	0f be       	out	0x3f, r0	; 63
     21e:	0f 90       	pop	r0
     220:	1f 90       	pop	r1
     222:	18 95       	reti

00000224 <__vector_16>:
#ifdef _USE_HW_TIM
extern TIM_HandleTypeDef htim1;
extern TIM_HandleTypeDef htim2;

ISR(TIMER0_OVF_vect)
{
     224:	1f 92       	push	r1
     226:	0f 92       	push	r0
     228:	0f b6       	in	r0, 0x3f	; 63
     22a:	0f 92       	push	r0
     22c:	11 24       	eor	r1, r1
     22e:	0b b6       	in	r0, 0x3b	; 59
     230:	0f 92       	push	r0
     232:	2f 93       	push	r18
     234:	3f 93       	push	r19
     236:	4f 93       	push	r20
     238:	5f 93       	push	r21
     23a:	6f 93       	push	r22
     23c:	7f 93       	push	r23
     23e:	8f 93       	push	r24
     240:	9f 93       	push	r25
     242:	af 93       	push	r26
     244:	bf 93       	push	r27
     246:	ef 93       	push	r30
     248:	ff 93       	push	r31
	TIM0_OVF_IRQHandler(&htim1);
     24a:	87 ef       	ldi	r24, 0xF7	; 247
     24c:	91 e0       	ldi	r25, 0x01	; 1
     24e:	0e 94 81 0d 	call	0x1b02	; 0x1b02 <TIM0_OVF_IRQHandler>
}
     252:	ff 91       	pop	r31
     254:	ef 91       	pop	r30
     256:	bf 91       	pop	r27
     258:	af 91       	pop	r26
     25a:	9f 91       	pop	r25
     25c:	8f 91       	pop	r24
     25e:	7f 91       	pop	r23
     260:	6f 91       	pop	r22
     262:	5f 91       	pop	r21
     264:	4f 91       	pop	r20
     266:	3f 91       	pop	r19
     268:	2f 91       	pop	r18
     26a:	0f 90       	pop	r0
     26c:	0b be       	out	0x3b, r0	; 59
     26e:	0f 90       	pop	r0
     270:	0f be       	out	0x3f, r0	; 63
     272:	0f 90       	pop	r0
     274:	1f 90       	pop	r1
     276:	18 95       	reti

00000278 <__vector_15>:

ISR(TIMER0_COMP_vect)
{
     278:	1f 92       	push	r1
     27a:	0f 92       	push	r0
     27c:	0f b6       	in	r0, 0x3f	; 63
     27e:	0f 92       	push	r0
     280:	11 24       	eor	r1, r1
     282:	0b b6       	in	r0, 0x3b	; 59
     284:	0f 92       	push	r0
     286:	2f 93       	push	r18
     288:	3f 93       	push	r19
     28a:	4f 93       	push	r20
     28c:	5f 93       	push	r21
     28e:	6f 93       	push	r22
     290:	7f 93       	push	r23
     292:	8f 93       	push	r24
     294:	9f 93       	push	r25
     296:	af 93       	push	r26
     298:	bf 93       	push	r27
     29a:	ef 93       	push	r30
     29c:	ff 93       	push	r31
	TIM0_OC_IRQHandler(&htim1);
     29e:	87 ef       	ldi	r24, 0xF7	; 247
     2a0:	91 e0       	ldi	r25, 0x01	; 1
     2a2:	0e 94 88 0d 	call	0x1b10	; 0x1b10 <TIM0_OC_IRQHandler>
}
     2a6:	ff 91       	pop	r31
     2a8:	ef 91       	pop	r30
     2aa:	bf 91       	pop	r27
     2ac:	af 91       	pop	r26
     2ae:	9f 91       	pop	r25
     2b0:	8f 91       	pop	r24
     2b2:	7f 91       	pop	r23
     2b4:	6f 91       	pop	r22
     2b6:	5f 91       	pop	r21
     2b8:	4f 91       	pop	r20
     2ba:	3f 91       	pop	r19
     2bc:	2f 91       	pop	r18
     2be:	0f 90       	pop	r0
     2c0:	0b be       	out	0x3b, r0	; 59
     2c2:	0f 90       	pop	r0
     2c4:	0f be       	out	0x3f, r0	; 63
     2c6:	0f 90       	pop	r0
     2c8:	1f 90       	pop	r1
     2ca:	18 95       	reti

000002cc <__vector_14>:

ISR(TIMER1_OVF_vect)
{
     2cc:	1f 92       	push	r1
     2ce:	0f 92       	push	r0
     2d0:	0f b6       	in	r0, 0x3f	; 63
     2d2:	0f 92       	push	r0
     2d4:	11 24       	eor	r1, r1
	
}
     2d6:	0f 90       	pop	r0
     2d8:	0f be       	out	0x3f, r0	; 63
     2da:	0f 90       	pop	r0
     2dc:	1f 90       	pop	r1
     2de:	18 95       	reti

000002e0 <__vector_12>:

ISR(TIMER1_COMPA_vect)
{
     2e0:	1f 92       	push	r1
     2e2:	0f 92       	push	r0
     2e4:	0f b6       	in	r0, 0x3f	; 63
     2e6:	0f 92       	push	r0
     2e8:	11 24       	eor	r1, r1
	
}
     2ea:	0f 90       	pop	r0
     2ec:	0f be       	out	0x3f, r0	; 63
     2ee:	0f 90       	pop	r0
     2f0:	1f 90       	pop	r1
     2f2:	18 95       	reti

000002f4 <__vector_13>:

ISR(TIMER1_COMPB_vect)
{
     2f4:	1f 92       	push	r1
     2f6:	0f 92       	push	r0
     2f8:	0f b6       	in	r0, 0x3f	; 63
     2fa:	0f 92       	push	r0
     2fc:	11 24       	eor	r1, r1
	
}
     2fe:	0f 90       	pop	r0
     300:	0f be       	out	0x3f, r0	; 63
     302:	0f 90       	pop	r0
     304:	1f 90       	pop	r1
     306:	18 95       	reti

00000308 <__vector_24>:

ISR(TIMER1_COMPC_vect)
{
     308:	1f 92       	push	r1
     30a:	0f 92       	push	r0
     30c:	0f b6       	in	r0, 0x3f	; 63
     30e:	0f 92       	push	r0
     310:	11 24       	eor	r1, r1
	
}
     312:	0f 90       	pop	r0
     314:	0f be       	out	0x3f, r0	; 63
     316:	0f 90       	pop	r0
     318:	1f 90       	pop	r1
     31a:	18 95       	reti

0000031c <__vector_11>:

ISR(TIMER1_CAPT_vect)
{
     31c:	1f 92       	push	r1
     31e:	0f 92       	push	r0
     320:	0f b6       	in	r0, 0x3f	; 63
     322:	0f 92       	push	r0
     324:	11 24       	eor	r1, r1
	
}
     326:	0f 90       	pop	r0
     328:	0f be       	out	0x3f, r0	; 63
     32a:	0f 90       	pop	r0
     32c:	1f 90       	pop	r1
     32e:	18 95       	reti

00000330 <__vector_10>:

ISR(TIMER2_OVF_vect)
{
     330:	1f 92       	push	r1
     332:	0f 92       	push	r0
     334:	0f b6       	in	r0, 0x3f	; 63
     336:	0f 92       	push	r0
     338:	11 24       	eor	r1, r1
     33a:	0b b6       	in	r0, 0x3b	; 59
     33c:	0f 92       	push	r0
     33e:	2f 93       	push	r18
     340:	3f 93       	push	r19
     342:	4f 93       	push	r20
     344:	5f 93       	push	r21
     346:	6f 93       	push	r22
     348:	7f 93       	push	r23
     34a:	8f 93       	push	r24
     34c:	9f 93       	push	r25
     34e:	af 93       	push	r26
     350:	bf 93       	push	r27
     352:	ef 93       	push	r30
     354:	ff 93       	push	r31
	TIM2_OVF_IRQHandler(&htim2);
     356:	85 e0       	ldi	r24, 0x05	; 5
     358:	92 e0       	ldi	r25, 0x02	; 2
     35a:	0e 94 84 0d 	call	0x1b08	; 0x1b08 <TIM2_OVF_IRQHandler>
}
     35e:	ff 91       	pop	r31
     360:	ef 91       	pop	r30
     362:	bf 91       	pop	r27
     364:	af 91       	pop	r26
     366:	9f 91       	pop	r25
     368:	8f 91       	pop	r24
     36a:	7f 91       	pop	r23
     36c:	6f 91       	pop	r22
     36e:	5f 91       	pop	r21
     370:	4f 91       	pop	r20
     372:	3f 91       	pop	r19
     374:	2f 91       	pop	r18
     376:	0f 90       	pop	r0
     378:	0b be       	out	0x3b, r0	; 59
     37a:	0f 90       	pop	r0
     37c:	0f be       	out	0x3f, r0	; 63
     37e:	0f 90       	pop	r0
     380:	1f 90       	pop	r1
     382:	18 95       	reti

00000384 <__vector_9>:

ISR(TIMER2_COMP_vect)
{
     384:	1f 92       	push	r1
     386:	0f 92       	push	r0
     388:	0f b6       	in	r0, 0x3f	; 63
     38a:	0f 92       	push	r0
     38c:	11 24       	eor	r1, r1
     38e:	0b b6       	in	r0, 0x3b	; 59
     390:	0f 92       	push	r0
     392:	2f 93       	push	r18
     394:	3f 93       	push	r19
     396:	4f 93       	push	r20
     398:	5f 93       	push	r21
     39a:	6f 93       	push	r22
     39c:	7f 93       	push	r23
     39e:	8f 93       	push	r24
     3a0:	9f 93       	push	r25
     3a2:	af 93       	push	r26
     3a4:	bf 93       	push	r27
     3a6:	ef 93       	push	r30
     3a8:	ff 93       	push	r31
	TIM2_OC_IRQHandler(&htim2);
     3aa:	85 e0       	ldi	r24, 0x05	; 5
     3ac:	92 e0       	ldi	r25, 0x02	; 2
     3ae:	0e 94 8b 0d 	call	0x1b16	; 0x1b16 <TIM2_OC_IRQHandler>
}
     3b2:	ff 91       	pop	r31
     3b4:	ef 91       	pop	r30
     3b6:	bf 91       	pop	r27
     3b8:	af 91       	pop	r26
     3ba:	9f 91       	pop	r25
     3bc:	8f 91       	pop	r24
     3be:	7f 91       	pop	r23
     3c0:	6f 91       	pop	r22
     3c2:	5f 91       	pop	r21
     3c4:	4f 91       	pop	r20
     3c6:	3f 91       	pop	r19
     3c8:	2f 91       	pop	r18
     3ca:	0f 90       	pop	r0
     3cc:	0b be       	out	0x3b, r0	; 59
     3ce:	0f 90       	pop	r0
     3d0:	0f be       	out	0x3f, r0	; 63
     3d2:	0f 90       	pop	r0
     3d4:	1f 90       	pop	r1
     3d6:	18 95       	reti

000003d8 <__vector_29>:

ISR(TIMER3_OVF_vect)
{
     3d8:	1f 92       	push	r1
     3da:	0f 92       	push	r0
     3dc:	0f b6       	in	r0, 0x3f	; 63
     3de:	0f 92       	push	r0
     3e0:	11 24       	eor	r1, r1
	
}
     3e2:	0f 90       	pop	r0
     3e4:	0f be       	out	0x3f, r0	; 63
     3e6:	0f 90       	pop	r0
     3e8:	1f 90       	pop	r1
     3ea:	18 95       	reti

000003ec <__vector_26>:

ISR(TIMER3_COMPA_vect)
{
     3ec:	1f 92       	push	r1
     3ee:	0f 92       	push	r0
     3f0:	0f b6       	in	r0, 0x3f	; 63
     3f2:	0f 92       	push	r0
     3f4:	11 24       	eor	r1, r1
	
}
     3f6:	0f 90       	pop	r0
     3f8:	0f be       	out	0x3f, r0	; 63
     3fa:	0f 90       	pop	r0
     3fc:	1f 90       	pop	r1
     3fe:	18 95       	reti

00000400 <__vector_27>:

ISR(TIMER3_COMPB_vect)
{
     400:	1f 92       	push	r1
     402:	0f 92       	push	r0
     404:	0f b6       	in	r0, 0x3f	; 63
     406:	0f 92       	push	r0
     408:	11 24       	eor	r1, r1
	
}
     40a:	0f 90       	pop	r0
     40c:	0f be       	out	0x3f, r0	; 63
     40e:	0f 90       	pop	r0
     410:	1f 90       	pop	r1
     412:	18 95       	reti

00000414 <__vector_28>:

ISR(TIMER3_COMPC_vect)
{
     414:	1f 92       	push	r1
     416:	0f 92       	push	r0
     418:	0f b6       	in	r0, 0x3f	; 63
     41a:	0f 92       	push	r0
     41c:	11 24       	eor	r1, r1
	
}
     41e:	0f 90       	pop	r0
     420:	0f be       	out	0x3f, r0	; 63
     422:	0f 90       	pop	r0
     424:	1f 90       	pop	r1
     426:	18 95       	reti

00000428 <__vector_25>:

ISR(TIMER3_CAPT_vect)
{
     428:	1f 92       	push	r1
     42a:	0f 92       	push	r0
     42c:	0f b6       	in	r0, 0x3f	; 63
     42e:	0f 92       	push	r0
     430:	11 24       	eor	r1, r1
	
}
     432:	0f 90       	pop	r0
     434:	0f be       	out	0x3f, r0	; 63
     436:	0f 90       	pop	r0
     438:	1f 90       	pop	r1
     43a:	18 95       	reti

0000043c <bspInit>:
﻿#include "bsp.h"


void bspInit(void)
{
     43c:	08 95       	ret

0000043e <qbufferWrite>:

	return ret;
}

bool qbufferWrite(qbuffer_t *p_node, uint8_t *p_data, uint32_t length)
{
     43e:	4f 92       	push	r4
     440:	5f 92       	push	r5
     442:	6f 92       	push	r6
     444:	7f 92       	push	r7
     446:	af 92       	push	r10
     448:	bf 92       	push	r11
     44a:	cf 92       	push	r12
     44c:	df 92       	push	r13
     44e:	ef 92       	push	r14
     450:	ff 92       	push	r15
     452:	0f 93       	push	r16
     454:	1f 93       	push	r17
     456:	cf 93       	push	r28
     458:	df 93       	push	r29
     45a:	00 d0       	rcall	.+0      	; 0x45c <qbufferWrite+0x1e>
     45c:	00 d0       	rcall	.+0      	; 0x45e <qbufferWrite+0x20>
     45e:	00 d0       	rcall	.+0      	; 0x460 <qbufferWrite+0x22>
     460:	cd b7       	in	r28, 0x3d	; 61
     462:	de b7       	in	r29, 0x3e	; 62
     464:	9e 83       	std	Y+6, r25	; 0x06
     466:	8d 83       	std	Y+5, r24	; 0x05
     468:	06 2f       	mov	r16, r22
     46a:	17 2f       	mov	r17, r23
     46c:	29 01       	movw	r4, r18
     46e:	3a 01       	movw	r6, r20
	bool ret = 0;
	uint32_t next_in;

	for (int i=0; i<length; i++)
     470:	23 2b       	or	r18, r19
     472:	24 2b       	or	r18, r20
     474:	25 2b       	or	r18, r21
     476:	09 f4       	brne	.+2      	; 0x47a <qbufferWrite+0x3c>
     478:	72 c0       	rjmp	.+228    	; 0x55e <qbufferWrite+0x120>
	{
		next_in = (p_node->in + 1) %p_node->len;
     47a:	dc 01       	movw	r26, r24
     47c:	8d 91       	ld	r24, X+
     47e:	9d 91       	ld	r25, X+
     480:	0d 90       	ld	r0, X+
     482:	bc 91       	ld	r27, X
     484:	a0 2d       	mov	r26, r0
     486:	89 83       	std	Y+1, r24	; 0x01
     488:	9a 83       	std	Y+2, r25	; 0x02
     48a:	ab 83       	std	Y+3, r26	; 0x03
     48c:	bc 83       	std	Y+4, r27	; 0x04
     48e:	bc 01       	movw	r22, r24
     490:	cd 01       	movw	r24, r26
     492:	6f 5f       	subi	r22, 0xFF	; 255
     494:	7f 4f       	sbci	r23, 0xFF	; 255
     496:	8f 4f       	sbci	r24, 0xFF	; 255
     498:	9f 4f       	sbci	r25, 0xFF	; 255
     49a:	ed 81       	ldd	r30, Y+5	; 0x05
     49c:	fe 81       	ldd	r31, Y+6	; 0x06
     49e:	20 85       	ldd	r18, Z+8	; 0x08
     4a0:	31 85       	ldd	r19, Z+9	; 0x09
     4a2:	42 85       	ldd	r20, Z+10	; 0x0a
     4a4:	53 85       	ldd	r21, Z+11	; 0x0b
     4a6:	0e 94 1e 0e 	call	0x1c3c	; 0x1c3c <__udivmodsi4>
     4aa:	6b 01       	movw	r12, r22
     4ac:	7c 01       	movw	r14, r24

		if (next_in != p_node->out)
     4ae:	ed 81       	ldd	r30, Y+5	; 0x05
     4b0:	fe 81       	ldd	r31, Y+6	; 0x06
     4b2:	84 81       	ldd	r24, Z+4	; 0x04
     4b4:	95 81       	ldd	r25, Z+5	; 0x05
     4b6:	a6 81       	ldd	r26, Z+6	; 0x06
     4b8:	b7 81       	ldd	r27, Z+7	; 0x07
     4ba:	c8 16       	cp	r12, r24
     4bc:	d9 06       	cpc	r13, r25
     4be:	ea 06       	cpc	r14, r26
     4c0:	fb 06       	cpc	r15, r27
     4c2:	09 f4       	brne	.+2      	; 0x4c6 <qbufferWrite+0x88>
     4c4:	4c c0       	rjmp	.+152    	; 0x55e <qbufferWrite+0x120>
     4c6:	a0 2e       	mov	r10, r16
     4c8:	b1 2e       	mov	r11, r17
     4ca:	00 e0       	ldi	r16, 0x00	; 0
     4cc:	10 e0       	ldi	r17, 0x00	; 0
     4ce:	24 c0       	rjmp	.+72     	; 0x518 <qbufferWrite+0xda>
	bool ret = 0;
	uint32_t next_in;

	for (int i=0; i<length; i++)
	{
		next_in = (p_node->in + 1) %p_node->len;
     4d0:	c7 01       	movw	r24, r14
     4d2:	b6 01       	movw	r22, r12
     4d4:	6f 5f       	subi	r22, 0xFF	; 255
     4d6:	7f 4f       	sbci	r23, 0xFF	; 255
     4d8:	8f 4f       	sbci	r24, 0xFF	; 255
     4da:	9f 4f       	sbci	r25, 0xFF	; 255
     4dc:	ad 81       	ldd	r26, Y+5	; 0x05
     4de:	be 81       	ldd	r27, Y+6	; 0x06
     4e0:	18 96       	adiw	r26, 0x08	; 8
     4e2:	2d 91       	ld	r18, X+
     4e4:	3d 91       	ld	r19, X+
     4e6:	4d 91       	ld	r20, X+
     4e8:	5c 91       	ld	r21, X
     4ea:	1b 97       	sbiw	r26, 0x0b	; 11
     4ec:	0e 94 1e 0e 	call	0x1c3c	; 0x1c3c <__udivmodsi4>
     4f0:	bf ef       	ldi	r27, 0xFF	; 255
     4f2:	ab 1a       	sub	r10, r27
     4f4:	bb 0a       	sbc	r11, r27
     4f6:	c9 82       	std	Y+1, r12	; 0x01
     4f8:	da 82       	std	Y+2, r13	; 0x02
     4fa:	eb 82       	std	Y+3, r14	; 0x03
     4fc:	fc 82       	std	Y+4, r15	; 0x04

		if (next_in != p_node->out)
     4fe:	ed 81       	ldd	r30, Y+5	; 0x05
     500:	fe 81       	ldd	r31, Y+6	; 0x06
     502:	c4 80       	ldd	r12, Z+4	; 0x04
     504:	d5 80       	ldd	r13, Z+5	; 0x05
     506:	e6 80       	ldd	r14, Z+6	; 0x06
     508:	f7 80       	ldd	r15, Z+7	; 0x07
     50a:	6c 15       	cp	r22, r12
     50c:	7d 05       	cpc	r23, r13
     50e:	8e 05       	cpc	r24, r14
     510:	9f 05       	cpc	r25, r15
     512:	29 f1       	breq	.+74     	; 0x55e <qbufferWrite+0x120>
	bool ret = 0;
	uint32_t next_in;

	for (int i=0; i<length; i++)
	{
		next_in = (p_node->in + 1) %p_node->len;
     514:	6b 01       	movw	r12, r22
     516:	7c 01       	movw	r14, r24

		if (next_in != p_node->out)
		{
			if (p_node->p_buf != NULL)
     518:	ad 81       	ldd	r26, Y+5	; 0x05
     51a:	be 81       	ldd	r27, Y+6	; 0x06
     51c:	1c 96       	adiw	r26, 0x0c	; 12
     51e:	8d 91       	ld	r24, X+
     520:	9c 91       	ld	r25, X
     522:	1d 97       	sbiw	r26, 0x0d	; 13
     524:	00 97       	sbiw	r24, 0x00	; 0
     526:	39 f0       	breq	.+14     	; 0x536 <qbufferWrite+0xf8>
			{
				p_node->p_buf[p_node->in] = p_data[i];
     528:	f5 01       	movw	r30, r10
     52a:	20 81       	ld	r18, Z
     52c:	e9 81       	ldd	r30, Y+1	; 0x01
     52e:	fa 81       	ldd	r31, Y+2	; 0x02
     530:	e8 0f       	add	r30, r24
     532:	f9 1f       	adc	r31, r25
     534:	20 83       	st	Z, r18
			}
			p_node->in = next_in;
     536:	ad 81       	ldd	r26, Y+5	; 0x05
     538:	be 81       	ldd	r27, Y+6	; 0x06
     53a:	cd 92       	st	X+, r12
     53c:	dd 92       	st	X+, r13
     53e:	ed 92       	st	X+, r14
     540:	fc 92       	st	X, r15
     542:	13 97       	sbiw	r26, 0x03	; 3
bool qbufferWrite(qbuffer_t *p_node, uint8_t *p_data, uint32_t length)
{
	bool ret = 0;
	uint32_t next_in;

	for (int i=0; i<length; i++)
     544:	0f 5f       	subi	r16, 0xFF	; 255
     546:	1f 4f       	sbci	r17, 0xFF	; 255
     548:	c8 01       	movw	r24, r16
     54a:	01 2e       	mov	r0, r17
     54c:	00 0c       	add	r0, r0
     54e:	aa 0b       	sbc	r26, r26
     550:	bb 0b       	sbc	r27, r27
     552:	84 15       	cp	r24, r4
     554:	95 05       	cpc	r25, r5
     556:	a6 05       	cpc	r26, r6
     558:	b7 05       	cpc	r27, r7
     55a:	08 f4       	brcc	.+2      	; 0x55e <qbufferWrite+0x120>
     55c:	b9 cf       	rjmp	.-142    	; 0x4d0 <qbufferWrite+0x92>
			ret = false;
			break;
		}
	}
	return ret;
}
     55e:	80 e0       	ldi	r24, 0x00	; 0
     560:	26 96       	adiw	r28, 0x06	; 6
     562:	0f b6       	in	r0, 0x3f	; 63
     564:	f8 94       	cli
     566:	de bf       	out	0x3e, r29	; 62
     568:	0f be       	out	0x3f, r0	; 63
     56a:	cd bf       	out	0x3d, r28	; 61
     56c:	df 91       	pop	r29
     56e:	cf 91       	pop	r28
     570:	1f 91       	pop	r17
     572:	0f 91       	pop	r16
     574:	ff 90       	pop	r15
     576:	ef 90       	pop	r14
     578:	df 90       	pop	r13
     57a:	cf 90       	pop	r12
     57c:	bf 90       	pop	r11
     57e:	af 90       	pop	r10
     580:	7f 90       	pop	r7
     582:	6f 90       	pop	r6
     584:	5f 90       	pop	r5
     586:	4f 90       	pop	r4
     588:	08 95       	ret

0000058a <a4988Init>:
{
	bool ret = true;
	
	for (int i = 0; i < A4988_MAX_CH; i++)
	{
		a4988_tbl[i].is_open	= false;
     58a:	e6 eb       	ldi	r30, 0xB6	; 182
     58c:	f1 e0       	ldi	r31, 0x01	; 1
     58e:	10 82       	st	Z, r1
		a4988_tbl[i].h_a4988	= NULL;
     590:	12 82       	std	Z+2, r1	; 0x02
     592:	11 82       	std	Z+1, r1	; 0x01
{
	bool ret = true;
	
	for (int i = 0; i < A4988_MAX_CH; i++)
	{
		a4988_tbl[i].is_open	= false;
     594:	15 82       	std	Z+5, r1	; 0x05
		a4988_tbl[i].h_a4988	= NULL;
     596:	17 82       	std	Z+7, r1	; 0x07
     598:	16 82       	std	Z+6, r1	; 0x06
	}
	return ret;
}
     59a:	81 e0       	ldi	r24, 0x01	; 1
     59c:	08 95       	ret

0000059e <gpioPinMode>:
	if (GPIO_ReadPin(gpio_tbl[ch].port, gpio_tbl[ch].pin) == gpio_tbl[ch].on_state)
	{
		ret = true;	
	}
	return ret;
}
     59e:	cf 93       	push	r28
     5a0:	df 93       	push	r29
     5a2:	00 d0       	rcall	.+0      	; 0x5a4 <gpioPinMode+0x6>
     5a4:	cd b7       	in	r28, 0x3d	; 61
     5a6:	de b7       	in	r29, 0x3e	; 62
     5a8:	1a 82       	std	Y+2, r1	; 0x02
     5aa:	19 82       	std	Y+1, r1	; 0x01
     5ac:	85 30       	cpi	r24, 0x05	; 5
     5ae:	b8 f4       	brcc	.+46     	; 0x5de <gpioPinMode+0x40>
     5b0:	61 30       	cpi	r22, 0x01	; 1
     5b2:	11 f4       	brne	.+4      	; 0x5b8 <gpioPinMode+0x1a>
     5b4:	91 e0       	ldi	r25, 0x01	; 1
     5b6:	9a 83       	std	Y+2, r25	; 0x02
     5b8:	90 e0       	ldi	r25, 0x00	; 0
     5ba:	fc 01       	movw	r30, r24
     5bc:	ee 0f       	add	r30, r30
     5be:	ff 1f       	adc	r31, r31
     5c0:	ee 0f       	add	r30, r30
     5c2:	ff 1f       	adc	r31, r31
     5c4:	e8 0f       	add	r30, r24
     5c6:	f9 1f       	adc	r31, r25
     5c8:	e0 50       	subi	r30, 0x00	; 0
     5ca:	ff 4f       	sbci	r31, 0xFF	; 255
     5cc:	81 81       	ldd	r24, Z+1	; 0x01
     5ce:	89 83       	std	Y+1, r24	; 0x01
     5d0:	be 01       	movw	r22, r28
     5d2:	6f 5f       	subi	r22, 0xFF	; 255
     5d4:	7f 4f       	sbci	r23, 0xFF	; 255
     5d6:	80 81       	ld	r24, Z
     5d8:	72 d1       	rcall	.+740    	; 0x8be <GPIO_Init>
     5da:	81 e0       	ldi	r24, 0x01	; 1
     5dc:	01 c0       	rjmp	.+2      	; 0x5e0 <gpioPinMode+0x42>
     5de:	80 e0       	ldi	r24, 0x00	; 0
     5e0:	0f 90       	pop	r0
     5e2:	0f 90       	pop	r0
     5e4:	df 91       	pop	r29
     5e6:	cf 91       	pop	r28
     5e8:	08 95       	ret

000005ea <gpioInit>:
     5ea:	0f 93       	push	r16
     5ec:	1f 93       	push	r17
     5ee:	cf 93       	push	r28
     5f0:	00 e0       	ldi	r16, 0x00	; 0
     5f2:	11 e0       	ldi	r17, 0x01	; 1
     5f4:	c0 e0       	ldi	r28, 0x00	; 0
     5f6:	f8 01       	movw	r30, r16
     5f8:	62 81       	ldd	r22, Z+2	; 0x02
     5fa:	8c 2f       	mov	r24, r28
     5fc:	d0 df       	rcall	.-96     	; 0x59e <gpioPinMode>
     5fe:	0b 5f       	subi	r16, 0xFB	; 251
     600:	1f 4f       	sbci	r17, 0xFF	; 255
     602:	cf 5f       	subi	r28, 0xFF	; 255
     604:	c5 30       	cpi	r28, 0x05	; 5
     606:	b9 f7       	brne	.-18     	; 0x5f6 <gpioInit+0xc>
     608:	81 e0       	ldi	r24, 0x01	; 1
     60a:	cf 91       	pop	r28
     60c:	1f 91       	pop	r17
     60e:	0f 91       	pop	r16
     610:	08 95       	ret

00000612 <gpioPinToggle>:

void gpioPinToggle(uint8_t ch)
{
	if (ch < 0 || ch >= GPIO_MAX_CH) return;
     612:	85 30       	cpi	r24, 0x05	; 5
     614:	68 f4       	brcc	.+26     	; 0x630 <gpioPinToggle+0x1e>
	GPIO_TogglePin(gpio_tbl[ch].port, gpio_tbl[ch].pin);
     616:	90 e0       	ldi	r25, 0x00	; 0
     618:	fc 01       	movw	r30, r24
     61a:	ee 0f       	add	r30, r30
     61c:	ff 1f       	adc	r31, r31
     61e:	ee 0f       	add	r30, r30
     620:	ff 1f       	adc	r31, r31
     622:	e8 0f       	add	r30, r24
     624:	f9 1f       	adc	r31, r25
     626:	e0 50       	subi	r30, 0x00	; 0
     628:	ff 4f       	sbci	r31, 0xFF	; 255
     62a:	61 81       	ldd	r22, Z+1	; 0x01
     62c:	80 81       	ld	r24, Z
     62e:	82 c1       	rjmp	.+772    	; 0x934 <GPIO_TogglePin>
     630:	08 95       	ret

00000632 <timerInit>:
	bool ret = false;
	tim_t *p_tim = &tim_tbl[ch];
	ret = timerStart(ch, p_tim->h_tim->Init.Tcnt, p_tim->h_tim->Init.Ocr, icr);

	return ret;
}
     632:	e0 ec       	ldi	r30, 0xC0	; 192
     634:	f1 e0       	ldi	r31, 0x01	; 1
     636:	8b ed       	ldi	r24, 0xDB	; 219
     638:	91 e0       	ldi	r25, 0x01	; 1
     63a:	10 82       	st	Z, r1
     63c:	12 82       	std	Z+2, r1	; 0x02
     63e:	11 82       	std	Z+1, r1	; 0x01
     640:	14 82       	std	Z+4, r1	; 0x04
     642:	13 82       	std	Z+3, r1	; 0x03
     644:	16 82       	std	Z+6, r1	; 0x06
     646:	15 82       	std	Z+5, r1	; 0x05
     648:	10 86       	std	Z+8, r1	; 0x08
     64a:	17 82       	std	Z+7, r1	; 0x07
     64c:	39 96       	adiw	r30, 0x09	; 9
     64e:	e8 17       	cp	r30, r24
     650:	f9 07       	cpc	r31, r25
     652:	99 f7       	brne	.-26     	; 0x63a <timerInit+0x8>
     654:	81 e0       	ldi	r24, 0x01	; 1
     656:	08 95       	ret

00000658 <timerStart>:
     658:	cf 93       	push	r28
     65a:	df 93       	push	r29
     65c:	c8 2f       	mov	r28, r24
     65e:	d0 e0       	ldi	r29, 0x00	; 0
     660:	81 30       	cpi	r24, 0x01	; 1
     662:	09 f4       	brne	.+2      	; 0x666 <timerStart+0xe>
     664:	44 c0       	rjmp	.+136    	; 0x6ee <timerStart+0x96>
     666:	38 f0       	brcs	.+14     	; 0x676 <timerStart+0x1e>
     668:	82 30       	cpi	r24, 0x02	; 2
     66a:	09 f4       	brne	.+2      	; 0x66e <timerStart+0x16>
     66c:	7c c0       	rjmp	.+248    	; 0x766 <timerStart+0x10e>
     66e:	83 30       	cpi	r24, 0x03	; 3
     670:	09 f4       	brne	.+2      	; 0x674 <timerStart+0x1c>
     672:	b4 c0       	rjmp	.+360    	; 0x7dc <timerStart+0x184>
     674:	c6 c0       	rjmp	.+396    	; 0x802 <timerStart+0x1aa>
     676:	de 01       	movw	r26, r28
     678:	aa 0f       	add	r26, r26
     67a:	bb 1f       	adc	r27, r27
     67c:	aa 0f       	add	r26, r26
     67e:	bb 1f       	adc	r27, r27
     680:	aa 0f       	add	r26, r26
     682:	bb 1f       	adc	r27, r27
     684:	ac 0f       	add	r26, r28
     686:	bd 1f       	adc	r27, r29
     688:	a0 54       	subi	r26, 0x40	; 64
     68a:	be 4f       	sbci	r27, 0xFE	; 254
     68c:	e7 ef       	ldi	r30, 0xF7	; 247
     68e:	f1 e0       	ldi	r31, 0x01	; 1
     690:	18 96       	adiw	r26, 0x08	; 8
     692:	fc 93       	st	X, r31
     694:	ee 93       	st	-X, r30
     696:	17 97       	sbiw	r26, 0x07	; 7
     698:	10 82       	st	Z, r1
     69a:	85 e0       	ldi	r24, 0x05	; 5
     69c:	82 83       	std	Z+2, r24	; 0x02
     69e:	11 82       	std	Z+1, r1	; 0x01
     6a0:	83 83       	std	Z+3, r24	; 0x03
     6a2:	14 82       	std	Z+4, r1	; 0x04
     6a4:	81 e0       	ldi	r24, 0x01	; 1
     6a6:	85 83       	std	Z+5, r24	; 0x05
     6a8:	16 82       	std	Z+6, r1	; 0x06
     6aa:	70 87       	std	Z+8, r23	; 0x08
     6ac:	67 83       	std	Z+7, r22	; 0x07
     6ae:	52 87       	std	Z+10, r21	; 0x0a
     6b0:	41 87       	std	Z+9, r20	; 0x09
     6b2:	34 87       	std	Z+12, r19	; 0x0c
     6b4:	23 87       	std	Z+11, r18	; 0x0b
     6b6:	cf 01       	movw	r24, r30
     6b8:	0e 94 9f 0b 	call	0x173e	; 0x173e <TIM_Init>
     6bc:	81 11       	cpse	r24, r1
     6be:	a3 c0       	rjmp	.+326    	; 0x806 <timerStart+0x1ae>
     6c0:	ce 01       	movw	r24, r28
     6c2:	88 0f       	add	r24, r24
     6c4:	99 1f       	adc	r25, r25
     6c6:	88 0f       	add	r24, r24
     6c8:	99 1f       	adc	r25, r25
     6ca:	88 0f       	add	r24, r24
     6cc:	99 1f       	adc	r25, r25
     6ce:	c8 0f       	add	r28, r24
     6d0:	d9 1f       	adc	r29, r25
     6d2:	c0 54       	subi	r28, 0x40	; 64
     6d4:	de 4f       	sbci	r29, 0xFE	; 254
     6d6:	81 e0       	ldi	r24, 0x01	; 1
     6d8:	88 83       	st	Y, r24
     6da:	87 ef       	ldi	r24, 0xF7	; 247
     6dc:	91 e0       	ldi	r25, 0x01	; 1
     6de:	0e 94 ac 0b 	call	0x1758	; 0x1758 <TIM_Start>
     6e2:	91 e0       	ldi	r25, 0x01	; 1
     6e4:	88 23       	and	r24, r24
     6e6:	09 f4       	brne	.+2      	; 0x6ea <timerStart+0x92>
     6e8:	93 c0       	rjmp	.+294    	; 0x810 <timerStart+0x1b8>
     6ea:	90 e0       	ldi	r25, 0x00	; 0
     6ec:	91 c0       	rjmp	.+290    	; 0x810 <timerStart+0x1b8>
     6ee:	de 01       	movw	r26, r28
     6f0:	aa 0f       	add	r26, r26
     6f2:	bb 1f       	adc	r27, r27
     6f4:	aa 0f       	add	r26, r26
     6f6:	bb 1f       	adc	r27, r27
     6f8:	aa 0f       	add	r26, r26
     6fa:	bb 1f       	adc	r27, r27
     6fc:	ac 0f       	add	r26, r28
     6fe:	bd 1f       	adc	r27, r29
     700:	a0 54       	subi	r26, 0x40	; 64
     702:	be 4f       	sbci	r27, 0xFE	; 254
     704:	e5 e0       	ldi	r30, 0x05	; 5
     706:	f2 e0       	ldi	r31, 0x02	; 2
     708:	18 96       	adiw	r26, 0x08	; 8
     70a:	fc 93       	st	X, r31
     70c:	ee 93       	st	-X, r30
     70e:	17 97       	sbiw	r26, 0x07	; 7
     710:	82 e0       	ldi	r24, 0x02	; 2
     712:	80 83       	st	Z, r24
     714:	85 e0       	ldi	r24, 0x05	; 5
     716:	82 83       	std	Z+2, r24	; 0x02
     718:	11 82       	std	Z+1, r1	; 0x01
     71a:	83 83       	std	Z+3, r24	; 0x03
     71c:	14 82       	std	Z+4, r1	; 0x04
     71e:	81 e0       	ldi	r24, 0x01	; 1
     720:	85 83       	std	Z+5, r24	; 0x05
     722:	16 82       	std	Z+6, r1	; 0x06
     724:	70 87       	std	Z+8, r23	; 0x08
     726:	67 83       	std	Z+7, r22	; 0x07
     728:	52 87       	std	Z+10, r21	; 0x0a
     72a:	41 87       	std	Z+9, r20	; 0x09
     72c:	34 87       	std	Z+12, r19	; 0x0c
     72e:	23 87       	std	Z+11, r18	; 0x0b
     730:	cf 01       	movw	r24, r30
     732:	0e 94 9f 0b 	call	0x173e	; 0x173e <TIM_Init>
     736:	81 11       	cpse	r24, r1
     738:	68 c0       	rjmp	.+208    	; 0x80a <timerStart+0x1b2>
     73a:	ce 01       	movw	r24, r28
     73c:	88 0f       	add	r24, r24
     73e:	99 1f       	adc	r25, r25
     740:	88 0f       	add	r24, r24
     742:	99 1f       	adc	r25, r25
     744:	88 0f       	add	r24, r24
     746:	99 1f       	adc	r25, r25
     748:	c8 0f       	add	r28, r24
     74a:	d9 1f       	adc	r29, r25
     74c:	c0 54       	subi	r28, 0x40	; 64
     74e:	de 4f       	sbci	r29, 0xFE	; 254
     750:	81 e0       	ldi	r24, 0x01	; 1
     752:	88 83       	st	Y, r24
     754:	85 e0       	ldi	r24, 0x05	; 5
     756:	92 e0       	ldi	r25, 0x02	; 2
     758:	ff d7       	rcall	.+4094   	; 0x1758 <TIM_Start>
     75a:	91 e0       	ldi	r25, 0x01	; 1
     75c:	88 23       	and	r24, r24
     75e:	09 f4       	brne	.+2      	; 0x762 <timerStart+0x10a>
     760:	57 c0       	rjmp	.+174    	; 0x810 <timerStart+0x1b8>
     762:	90 e0       	ldi	r25, 0x00	; 0
     764:	55 c0       	rjmp	.+170    	; 0x810 <timerStart+0x1b8>
     766:	de 01       	movw	r26, r28
     768:	aa 0f       	add	r26, r26
     76a:	bb 1f       	adc	r27, r27
     76c:	aa 0f       	add	r26, r26
     76e:	bb 1f       	adc	r27, r27
     770:	aa 0f       	add	r26, r26
     772:	bb 1f       	adc	r27, r27
     774:	ac 0f       	add	r26, r28
     776:	bd 1f       	adc	r27, r29
     778:	a0 54       	subi	r26, 0x40	; 64
     77a:	be 4f       	sbci	r27, 0xFE	; 254
     77c:	e9 ee       	ldi	r30, 0xE9	; 233
     77e:	f1 e0       	ldi	r31, 0x01	; 1
     780:	18 96       	adiw	r26, 0x08	; 8
     782:	fc 93       	st	X, r31
     784:	ee 93       	st	-X, r30
     786:	17 97       	sbiw	r26, 0x07	; 7
     788:	81 e0       	ldi	r24, 0x01	; 1
     78a:	80 83       	st	Z, r24
     78c:	93 e0       	ldi	r25, 0x03	; 3
     78e:	92 83       	std	Z+2, r25	; 0x02
     790:	11 82       	std	Z+1, r1	; 0x01
     792:	9c e0       	ldi	r25, 0x0C	; 12
     794:	93 83       	std	Z+3, r25	; 0x03
     796:	14 82       	std	Z+4, r1	; 0x04
     798:	94 e0       	ldi	r25, 0x04	; 4
     79a:	95 83       	std	Z+5, r25	; 0x05
     79c:	86 83       	std	Z+6, r24	; 0x06
     79e:	70 87       	std	Z+8, r23	; 0x08
     7a0:	67 83       	std	Z+7, r22	; 0x07
     7a2:	52 87       	std	Z+10, r21	; 0x0a
     7a4:	41 87       	std	Z+9, r20	; 0x09
     7a6:	34 87       	std	Z+12, r19	; 0x0c
     7a8:	23 87       	std	Z+11, r18	; 0x0b
     7aa:	cf 01       	movw	r24, r30
     7ac:	c8 d7       	rcall	.+3984   	; 0x173e <TIM_Init>
     7ae:	81 11       	cpse	r24, r1
     7b0:	2e c0       	rjmp	.+92     	; 0x80e <timerStart+0x1b6>
     7b2:	ce 01       	movw	r24, r28
     7b4:	88 0f       	add	r24, r24
     7b6:	99 1f       	adc	r25, r25
     7b8:	88 0f       	add	r24, r24
     7ba:	99 1f       	adc	r25, r25
     7bc:	88 0f       	add	r24, r24
     7be:	99 1f       	adc	r25, r25
     7c0:	c8 0f       	add	r28, r24
     7c2:	d9 1f       	adc	r29, r25
     7c4:	c0 54       	subi	r28, 0x40	; 64
     7c6:	de 4f       	sbci	r29, 0xFE	; 254
     7c8:	81 e0       	ldi	r24, 0x01	; 1
     7ca:	88 83       	st	Y, r24
     7cc:	89 ee       	ldi	r24, 0xE9	; 233
     7ce:	91 e0       	ldi	r25, 0x01	; 1
     7d0:	c3 d7       	rcall	.+3974   	; 0x1758 <TIM_Start>
     7d2:	91 e0       	ldi	r25, 0x01	; 1
     7d4:	88 23       	and	r24, r24
     7d6:	e1 f0       	breq	.+56     	; 0x810 <timerStart+0x1b8>
     7d8:	90 e0       	ldi	r25, 0x00	; 0
     7da:	1a c0       	rjmp	.+52     	; 0x810 <timerStart+0x1b8>
     7dc:	ce 01       	movw	r24, r28
     7de:	88 0f       	add	r24, r24
     7e0:	99 1f       	adc	r25, r25
     7e2:	88 0f       	add	r24, r24
     7e4:	99 1f       	adc	r25, r25
     7e6:	88 0f       	add	r24, r24
     7e8:	99 1f       	adc	r25, r25
     7ea:	c8 0f       	add	r28, r24
     7ec:	d9 1f       	adc	r29, r25
     7ee:	c0 54       	subi	r28, 0x40	; 64
     7f0:	de 4f       	sbci	r29, 0xFE	; 254
     7f2:	eb ed       	ldi	r30, 0xDB	; 219
     7f4:	f1 e0       	ldi	r31, 0x01	; 1
     7f6:	f8 87       	std	Y+8, r31	; 0x08
     7f8:	ef 83       	std	Y+7, r30	; 0x07
     7fa:	83 e0       	ldi	r24, 0x03	; 3
     7fc:	80 83       	st	Z, r24
     7fe:	90 e0       	ldi	r25, 0x00	; 0
     800:	07 c0       	rjmp	.+14     	; 0x810 <timerStart+0x1b8>
     802:	90 e0       	ldi	r25, 0x00	; 0
     804:	05 c0       	rjmp	.+10     	; 0x810 <timerStart+0x1b8>
     806:	90 e0       	ldi	r25, 0x00	; 0
     808:	03 c0       	rjmp	.+6      	; 0x810 <timerStart+0x1b8>
     80a:	90 e0       	ldi	r25, 0x00	; 0
     80c:	01 c0       	rjmp	.+2      	; 0x810 <timerStart+0x1b8>
     80e:	90 e0       	ldi	r25, 0x00	; 0
     810:	89 2f       	mov	r24, r25
     812:	df 91       	pop	r29
     814:	cf 91       	pop	r28
     816:	08 95       	ret

00000818 <TIM0_OVF_ElapsedCallback>:


volatile int i = 0;
volatile int j = 0;
void TIM0_OVF_ElapsedCallback(TIM_HandleTypeDef *htim)
{
     818:	cf 93       	push	r28
     81a:	df 93       	push	r29
     81c:	ec 01       	movw	r28, r24
	if (i == 250)
     81e:	80 91 9a 01 	lds	r24, 0x019A	; 0x80019a <i>
     822:	90 91 9b 01 	lds	r25, 0x019B	; 0x80019b <i+0x1>
     826:	8a 3f       	cpi	r24, 0xFA	; 250
     828:	91 05       	cpc	r25, r1
     82a:	31 f4       	brne	.+12     	; 0x838 <TIM0_OVF_ElapsedCallback+0x20>
	{
		gpioPinToggle(_DEF_GPIO0);
     82c:	80 e0       	ldi	r24, 0x00	; 0
     82e:	f1 de       	rcall	.-542    	; 0x612 <gpioPinToggle>
		i = 0;
     830:	10 92 9b 01 	sts	0x019B, r1	; 0x80019b <i+0x1>
     834:	10 92 9a 01 	sts	0x019A, r1	; 0x80019a <i>
	}
	i++;
     838:	80 91 9a 01 	lds	r24, 0x019A	; 0x80019a <i>
     83c:	90 91 9b 01 	lds	r25, 0x019B	; 0x80019b <i+0x1>
     840:	01 96       	adiw	r24, 0x01	; 1
     842:	90 93 9b 01 	sts	0x019B, r25	; 0x80019b <i+0x1>
     846:	80 93 9a 01 	sts	0x019A, r24	; 0x80019a <i>
	TIM_Start(htim);
     84a:	ce 01       	movw	r24, r28
     84c:	85 d7       	rcall	.+3850   	; 0x1758 <TIM_Start>
}
     84e:	df 91       	pop	r29
     850:	cf 91       	pop	r28
     852:	08 95       	ret

00000854 <TIM2_OVF_ElapsedCallback>:

void TIM2_OVF_ElapsedCallback(TIM_HandleTypeDef *htim)
{
     854:	cf 93       	push	r28
     856:	df 93       	push	r29
     858:	ec 01       	movw	r28, r24
	if (j == 500)
     85a:	80 91 98 01 	lds	r24, 0x0198	; 0x800198 <__data_end>
     85e:	90 91 99 01 	lds	r25, 0x0199	; 0x800199 <__data_end+0x1>
     862:	84 3f       	cpi	r24, 0xF4	; 244
     864:	91 40       	sbci	r25, 0x01	; 1
     866:	31 f4       	brne	.+12     	; 0x874 <TIM2_OVF_ElapsedCallback+0x20>
	{
		gpioPinToggle(_DEF_GPIO1);
     868:	81 e0       	ldi	r24, 0x01	; 1
     86a:	d3 de       	rcall	.-602    	; 0x612 <gpioPinToggle>
		j = 0;
     86c:	10 92 99 01 	sts	0x0199, r1	; 0x800199 <__data_end+0x1>
     870:	10 92 98 01 	sts	0x0198, r1	; 0x800198 <__data_end>
	}
	j++;
     874:	80 91 98 01 	lds	r24, 0x0198	; 0x800198 <__data_end>
     878:	90 91 99 01 	lds	r25, 0x0199	; 0x800199 <__data_end+0x1>
     87c:	01 96       	adiw	r24, 0x01	; 1
     87e:	90 93 99 01 	sts	0x0199, r25	; 0x800199 <__data_end+0x1>
     882:	80 93 98 01 	sts	0x0198, r24	; 0x800198 <__data_end>
	TIM_Start(htim);
     886:	ce 01       	movw	r24, r28
     888:	67 d7       	rcall	.+3790   	; 0x1758 <TIM_Start>
}
     88a:	df 91       	pop	r29
     88c:	cf 91       	pop	r28
     88e:	08 95       	ret

00000890 <uartInit>:
		case _DEF_UART0:
		baud = huart1.Init.BaudRate;
		break;
	}
	return baud;
}
     890:	81 e0       	ldi	r24, 0x01	; 1
     892:	08 95       	ret

00000894 <UART_TxCpltCallback>:


void UART_TxCpltCallback(UART_HandleTypeDef *huart)
{
     894:	08 95       	ret

00000896 <UART_RxCpltCallback>:
	return;
}

void UART_RxCpltCallback(UART_HandleTypeDef *huart)
{
	switch(huart->USARTn)
     896:	fc 01       	movw	r30, r24
     898:	20 81       	ld	r18, Z
     89a:	21 11       	cpse	r18, r1
     89c:	09 c0       	rjmp	.+18     	; 0x8b0 <UART_RxCpltCallback+0x1a>
	{
		case USART0:
		qbufferWrite(&qbuffer[_DEF_UART0], huart->pRxBuffPtr, huart->RxXferSize);
     89e:	20 89       	ldd	r18, Z+16	; 0x10
     8a0:	31 89       	ldd	r19, Z+17	; 0x11
     8a2:	40 e0       	ldi	r20, 0x00	; 0
     8a4:	50 e0       	ldi	r21, 0x00	; 0
     8a6:	64 85       	ldd	r22, Z+12	; 0x0c
     8a8:	75 85       	ldd	r23, Z+13	; 0x0d
     8aa:	8c e9       	ldi	r24, 0x9C	; 156
     8ac:	91 e0       	ldi	r25, 0x01	; 1
     8ae:	c7 cd       	rjmp	.-1138   	; 0x43e <qbufferWrite>
     8b0:	08 95       	ret

000008b2 <hwInit>:
﻿#include "hw.h"

void hwInit(void)
{
	bspInit();
     8b2:	c4 dd       	rcall	.-1144   	; 0x43c <bspInit>
	gpioInit();
     8b4:	9a de       	rcall	.-716    	; 0x5ea <gpioInit>
	uartInit();
     8b6:	ec df       	rcall	.-40     	; 0x890 <uartInit>
	timerInit();
     8b8:	bc de       	rcall	.-648    	; 0x632 <timerInit>
     8ba:	67 ce       	rjmp	.-818    	; 0x58a <a4988Init>
	a4988Init();
     8bc:	08 95       	ret

000008be <GPIO_Init>:
     8be:	90 e0       	ldi	r25, 0x00	; 0
     8c0:	db 01       	movw	r26, r22
	{
		CLRB(*(gpio->PORTn), pin);
	}
	else if(pinState == PIN_SET)
	{
		SETB(*(gpio->PORTn), pin);
     8c2:	11 96       	adiw	r26, 0x01	; 1
     8c4:	2c 91       	ld	r18, X
     8c6:	11 97       	sbiw	r26, 0x01	; 1
     8c8:	21 11       	cpse	r18, r1
     8ca:	19 c0       	rjmp	.+50     	; 0x8fe <GPIO_Init+0x40>
     8cc:	fc 01       	movw	r30, r24
     8ce:	ee 0f       	add	r30, r30
     8d0:	ff 1f       	adc	r31, r31
     8d2:	e8 0f       	add	r30, r24
     8d4:	f9 1f       	adc	r31, r25
     8d6:	ee 0f       	add	r30, r30
     8d8:	ff 1f       	adc	r31, r31
     8da:	e7 5e       	subi	r30, 0xE7	; 231
     8dc:	fe 4f       	sbci	r31, 0xFE	; 254
     8de:	01 90       	ld	r0, Z+
     8e0:	f0 81       	ld	r31, Z
     8e2:	e0 2d       	mov	r30, r0
     8e4:	20 81       	ld	r18, Z
     8e6:	81 e0       	ldi	r24, 0x01	; 1
     8e8:	90 e0       	ldi	r25, 0x00	; 0
     8ea:	0c 90       	ld	r0, X
     8ec:	02 c0       	rjmp	.+4      	; 0x8f2 <GPIO_Init+0x34>
     8ee:	88 0f       	add	r24, r24
     8f0:	99 1f       	adc	r25, r25
     8f2:	0a 94       	dec	r0
     8f4:	e2 f7       	brpl	.-8      	; 0x8ee <GPIO_Init+0x30>
     8f6:	80 95       	com	r24
     8f8:	82 23       	and	r24, r18
     8fa:	80 83       	st	Z, r24
     8fc:	08 95       	ret
     8fe:	21 30       	cpi	r18, 0x01	; 1
     900:	c1 f4       	brne	.+48     	; 0x932 <GPIO_Init+0x74>
     902:	fc 01       	movw	r30, r24
     904:	ee 0f       	add	r30, r30
     906:	ff 1f       	adc	r31, r31
     908:	e8 0f       	add	r30, r24
     90a:	f9 1f       	adc	r31, r25
     90c:	ee 0f       	add	r30, r30
     90e:	ff 1f       	adc	r31, r31
     910:	e7 5e       	subi	r30, 0xE7	; 231
     912:	fe 4f       	sbci	r31, 0xFE	; 254
     914:	01 90       	ld	r0, Z+
     916:	f0 81       	ld	r31, Z
     918:	e0 2d       	mov	r30, r0
     91a:	20 81       	ld	r18, Z
     91c:	81 e0       	ldi	r24, 0x01	; 1
     91e:	90 e0       	ldi	r25, 0x00	; 0
     920:	db 01       	movw	r26, r22
     922:	0c 90       	ld	r0, X
     924:	02 c0       	rjmp	.+4      	; 0x92a <GPIO_Init+0x6c>
     926:	88 0f       	add	r24, r24
     928:	99 1f       	adc	r25, r25
     92a:	0a 94       	dec	r0
     92c:	e2 f7       	brpl	.-8      	; 0x926 <GPIO_Init+0x68>
     92e:	82 2b       	or	r24, r18
     930:	80 83       	st	Z, r24
     932:	08 95       	ret

00000934 <GPIO_TogglePin>:
}

void GPIO_TogglePin(uint8_t port, uint8_t pin)
{
	GPIO_TypeDef *gpio = &GPIO_descripter[port];
	TGLB(*(gpio->PORTn), pin);
     934:	90 e0       	ldi	r25, 0x00	; 0
     936:	fc 01       	movw	r30, r24
     938:	ee 0f       	add	r30, r30
     93a:	ff 1f       	adc	r31, r31
     93c:	e8 0f       	add	r30, r24
     93e:	f9 1f       	adc	r31, r25
     940:	ee 0f       	add	r30, r30
     942:	ff 1f       	adc	r31, r31
     944:	e7 5e       	subi	r30, 0xE7	; 231
     946:	fe 4f       	sbci	r31, 0xFE	; 254
     948:	02 80       	ldd	r0, Z+2	; 0x02
     94a:	f3 81       	ldd	r31, Z+3	; 0x03
     94c:	e0 2d       	mov	r30, r0
     94e:	20 81       	ld	r18, Z
     950:	81 e0       	ldi	r24, 0x01	; 1
     952:	90 e0       	ldi	r25, 0x00	; 0
     954:	02 c0       	rjmp	.+4      	; 0x95a <GPIO_TogglePin+0x26>
     956:	88 0f       	add	r24, r24
     958:	99 1f       	adc	r25, r25
     95a:	6a 95       	dec	r22
     95c:	e2 f7       	brpl	.-8      	; 0x956 <GPIO_TogglePin+0x22>
     95e:	82 27       	eor	r24, r18
     960:	80 83       	st	Z, r24
     962:	08 95       	ret

00000964 <TIM8_Init>:
	TIM2_OVF_ElapsedCallback(htim);
}

void TIM3_OVF_IRQHandler(TIM_HandleTypeDef *htim)
{
	TIM3_OVF_ElapsedCallback(htim);
     964:	cf 93       	push	r28
     966:	df 93       	push	r29
     968:	dc 01       	movw	r26, r24
     96a:	8c 91       	ld	r24, X
     96c:	81 11       	cpse	r24, r1
     96e:	a1 c0       	rjmp	.+322    	; 0xab2 <TIM8_Init+0x14e>
     970:	12 96       	adiw	r26, 0x02	; 2
     972:	ec 91       	ld	r30, X
     974:	12 97       	sbiw	r26, 0x02	; 2
     976:	4e 2f       	mov	r20, r30
     978:	50 e0       	ldi	r21, 0x00	; 0
     97a:	47 30       	cpi	r20, 0x07	; 7
     97c:	51 05       	cpc	r21, r1
     97e:	08 f0       	brcs	.+2      	; 0x982 <TIM8_Init+0x1e>
     980:	46 c1       	rjmp	.+652    	; 0xc0e <TIM8_Init+0x2aa>
     982:	fa 01       	movw	r30, r20
     984:	ea 5b       	subi	r30, 0xBA	; 186
     986:	ff 4f       	sbci	r31, 0xFF	; 255
     988:	0c 94 40 0e 	jmp	0x1c80	; 0x1c80 <__tablejump2__>
     98c:	ef e6       	ldi	r30, 0x6F	; 111
     98e:	f1 e0       	ldi	r31, 0x01	; 1
     990:	c0 81       	ld	r28, Z
     992:	d1 81       	ldd	r29, Z+1	; 0x01
     994:	88 81       	ld	r24, Y
     996:	8b 7f       	andi	r24, 0xFB	; 251
     998:	88 83       	st	Y, r24
     99a:	c0 81       	ld	r28, Z
     99c:	d1 81       	ldd	r29, Z+1	; 0x01
     99e:	88 81       	ld	r24, Y
     9a0:	8d 7f       	andi	r24, 0xFD	; 253
     9a2:	88 83       	st	Y, r24
     9a4:	01 90       	ld	r0, Z+
     9a6:	f0 81       	ld	r31, Z
     9a8:	e0 2d       	mov	r30, r0
     9aa:	80 81       	ld	r24, Z
     9ac:	81 60       	ori	r24, 0x01	; 1
     9ae:	80 83       	st	Z, r24
     9b0:	ef e6       	ldi	r30, 0x6F	; 111
     9b2:	f1 e0       	ldi	r31, 0x01	; 1
     9b4:	34 c1       	rjmp	.+616    	; 0xc1e <TIM8_Init+0x2ba>
     9b6:	ef e6       	ldi	r30, 0x6F	; 111
     9b8:	f1 e0       	ldi	r31, 0x01	; 1
     9ba:	c0 81       	ld	r28, Z
     9bc:	d1 81       	ldd	r29, Z+1	; 0x01
     9be:	88 81       	ld	r24, Y
     9c0:	8b 7f       	andi	r24, 0xFB	; 251
     9c2:	88 83       	st	Y, r24
     9c4:	c0 81       	ld	r28, Z
     9c6:	d1 81       	ldd	r29, Z+1	; 0x01
     9c8:	88 81       	ld	r24, Y
     9ca:	82 60       	ori	r24, 0x02	; 2
     9cc:	88 83       	st	Y, r24
     9ce:	01 90       	ld	r0, Z+
     9d0:	f0 81       	ld	r31, Z
     9d2:	e0 2d       	mov	r30, r0
     9d4:	80 81       	ld	r24, Z
     9d6:	8e 7f       	andi	r24, 0xFE	; 254
     9d8:	80 83       	st	Z, r24
     9da:	ef e6       	ldi	r30, 0x6F	; 111
     9dc:	f1 e0       	ldi	r31, 0x01	; 1
     9de:	1f c1       	rjmp	.+574    	; 0xc1e <TIM8_Init+0x2ba>
     9e0:	ef e6       	ldi	r30, 0x6F	; 111
     9e2:	f1 e0       	ldi	r31, 0x01	; 1
     9e4:	c0 81       	ld	r28, Z
     9e6:	d1 81       	ldd	r29, Z+1	; 0x01
     9e8:	88 81       	ld	r24, Y
     9ea:	8b 7f       	andi	r24, 0xFB	; 251
     9ec:	88 83       	st	Y, r24
     9ee:	c0 81       	ld	r28, Z
     9f0:	d1 81       	ldd	r29, Z+1	; 0x01
     9f2:	88 81       	ld	r24, Y
     9f4:	82 60       	ori	r24, 0x02	; 2
     9f6:	88 83       	st	Y, r24
     9f8:	01 90       	ld	r0, Z+
     9fa:	f0 81       	ld	r31, Z
     9fc:	e0 2d       	mov	r30, r0
     9fe:	80 81       	ld	r24, Z
     a00:	81 60       	ori	r24, 0x01	; 1
     a02:	80 83       	st	Z, r24
     a04:	ef e6       	ldi	r30, 0x6F	; 111
     a06:	f1 e0       	ldi	r31, 0x01	; 1
     a08:	0a c1       	rjmp	.+532    	; 0xc1e <TIM8_Init+0x2ba>
     a0a:	ef e6       	ldi	r30, 0x6F	; 111
     a0c:	f1 e0       	ldi	r31, 0x01	; 1
     a0e:	c0 81       	ld	r28, Z
     a10:	d1 81       	ldd	r29, Z+1	; 0x01
     a12:	88 81       	ld	r24, Y
     a14:	84 60       	ori	r24, 0x04	; 4
     a16:	88 83       	st	Y, r24
     a18:	c0 81       	ld	r28, Z
     a1a:	d1 81       	ldd	r29, Z+1	; 0x01
     a1c:	88 81       	ld	r24, Y
     a1e:	8d 7f       	andi	r24, 0xFD	; 253
     a20:	88 83       	st	Y, r24
     a22:	01 90       	ld	r0, Z+
     a24:	f0 81       	ld	r31, Z
     a26:	e0 2d       	mov	r30, r0
     a28:	80 81       	ld	r24, Z
     a2a:	8e 7f       	andi	r24, 0xFE	; 254
     a2c:	80 83       	st	Z, r24
     a2e:	ef e6       	ldi	r30, 0x6F	; 111
     a30:	f1 e0       	ldi	r31, 0x01	; 1
     a32:	f5 c0       	rjmp	.+490    	; 0xc1e <TIM8_Init+0x2ba>
     a34:	ef e6       	ldi	r30, 0x6F	; 111
     a36:	f1 e0       	ldi	r31, 0x01	; 1
     a38:	c0 81       	ld	r28, Z
     a3a:	d1 81       	ldd	r29, Z+1	; 0x01
     a3c:	88 81       	ld	r24, Y
     a3e:	84 60       	ori	r24, 0x04	; 4
     a40:	88 83       	st	Y, r24
     a42:	c0 81       	ld	r28, Z
     a44:	d1 81       	ldd	r29, Z+1	; 0x01
     a46:	88 81       	ld	r24, Y
     a48:	8d 7f       	andi	r24, 0xFD	; 253
     a4a:	88 83       	st	Y, r24
     a4c:	01 90       	ld	r0, Z+
     a4e:	f0 81       	ld	r31, Z
     a50:	e0 2d       	mov	r30, r0
     a52:	80 81       	ld	r24, Z
     a54:	81 60       	ori	r24, 0x01	; 1
     a56:	80 83       	st	Z, r24
     a58:	ef e6       	ldi	r30, 0x6F	; 111
     a5a:	f1 e0       	ldi	r31, 0x01	; 1
     a5c:	e0 c0       	rjmp	.+448    	; 0xc1e <TIM8_Init+0x2ba>
     a5e:	ef e6       	ldi	r30, 0x6F	; 111
     a60:	f1 e0       	ldi	r31, 0x01	; 1
     a62:	c0 81       	ld	r28, Z
     a64:	d1 81       	ldd	r29, Z+1	; 0x01
     a66:	88 81       	ld	r24, Y
     a68:	84 60       	ori	r24, 0x04	; 4
     a6a:	88 83       	st	Y, r24
     a6c:	c0 81       	ld	r28, Z
     a6e:	d1 81       	ldd	r29, Z+1	; 0x01
     a70:	88 81       	ld	r24, Y
     a72:	82 60       	ori	r24, 0x02	; 2
     a74:	88 83       	st	Y, r24
     a76:	01 90       	ld	r0, Z+
     a78:	f0 81       	ld	r31, Z
     a7a:	e0 2d       	mov	r30, r0
     a7c:	80 81       	ld	r24, Z
     a7e:	8e 7f       	andi	r24, 0xFE	; 254
     a80:	80 83       	st	Z, r24
     a82:	ef e6       	ldi	r30, 0x6F	; 111
     a84:	f1 e0       	ldi	r31, 0x01	; 1
     a86:	cb c0       	rjmp	.+406    	; 0xc1e <TIM8_Init+0x2ba>
     a88:	ef e6       	ldi	r30, 0x6F	; 111
     a8a:	f1 e0       	ldi	r31, 0x01	; 1
     a8c:	c0 81       	ld	r28, Z
     a8e:	d1 81       	ldd	r29, Z+1	; 0x01
     a90:	88 81       	ld	r24, Y
     a92:	84 60       	ori	r24, 0x04	; 4
     a94:	88 83       	st	Y, r24
     a96:	c0 81       	ld	r28, Z
     a98:	d1 81       	ldd	r29, Z+1	; 0x01
     a9a:	88 81       	ld	r24, Y
     a9c:	82 60       	ori	r24, 0x02	; 2
     a9e:	88 83       	st	Y, r24
     aa0:	01 90       	ld	r0, Z+
     aa2:	f0 81       	ld	r31, Z
     aa4:	e0 2d       	mov	r30, r0
     aa6:	80 81       	ld	r24, Z
     aa8:	81 60       	ori	r24, 0x01	; 1
     aaa:	80 83       	st	Z, r24
     aac:	ef e6       	ldi	r30, 0x6F	; 111
     aae:	f1 e0       	ldi	r31, 0x01	; 1
     ab0:	b6 c0       	rjmp	.+364    	; 0xc1e <TIM8_Init+0x2ba>
     ab2:	82 30       	cpi	r24, 0x02	; 2
     ab4:	09 f0       	breq	.+2      	; 0xab8 <TIM8_Init+0x154>
     ab6:	85 c1       	rjmp	.+778    	; 0xdc2 <TIM8_Init+0x45e>
     ab8:	12 96       	adiw	r26, 0x02	; 2
     aba:	8c 91       	ld	r24, X
     abc:	12 97       	sbiw	r26, 0x02	; 2
     abe:	83 30       	cpi	r24, 0x03	; 3
     ac0:	91 f1       	breq	.+100    	; 0xb26 <TIM8_Init+0x1c2>
     ac2:	28 f4       	brcc	.+10     	; 0xace <TIM8_Init+0x16a>
     ac4:	88 23       	and	r24, r24
     ac6:	49 f0       	breq	.+18     	; 0xada <TIM8_Init+0x176>
     ac8:	81 30       	cpi	r24, 0x01	; 1
     aca:	d1 f0       	breq	.+52     	; 0xb00 <TIM8_Init+0x19c>
     acc:	64 c0       	rjmp	.+200    	; 0xb96 <TIM8_Init+0x232>
     ace:	85 30       	cpi	r24, 0x05	; 5
     ad0:	e9 f1       	breq	.+122    	; 0xb4c <TIM8_Init+0x1e8>
     ad2:	86 30       	cpi	r24, 0x06	; 6
     ad4:	09 f4       	brne	.+2      	; 0xad8 <TIM8_Init+0x174>
     ad6:	4d c0       	rjmp	.+154    	; 0xb72 <TIM8_Init+0x20e>
     ad8:	5e c0       	rjmp	.+188    	; 0xb96 <TIM8_Init+0x232>
     ada:	ef e6       	ldi	r30, 0x6F	; 111
     adc:	f1 e0       	ldi	r31, 0x01	; 1
     ade:	c0 85       	ldd	r28, Z+8	; 0x08
     ae0:	d1 85       	ldd	r29, Z+9	; 0x09
     ae2:	88 81       	ld	r24, Y
     ae4:	8b 7f       	andi	r24, 0xFB	; 251
     ae6:	88 83       	st	Y, r24
     ae8:	c0 85       	ldd	r28, Z+8	; 0x08
     aea:	d1 85       	ldd	r29, Z+9	; 0x09
     aec:	88 81       	ld	r24, Y
     aee:	8d 7f       	andi	r24, 0xFD	; 253
     af0:	88 83       	st	Y, r24
     af2:	00 84       	ldd	r0, Z+8	; 0x08
     af4:	f1 85       	ldd	r31, Z+9	; 0x09
     af6:	e0 2d       	mov	r30, r0
     af8:	80 81       	ld	r24, Z
     afa:	81 60       	ori	r24, 0x01	; 1
     afc:	80 83       	st	Z, r24
     afe:	4b c0       	rjmp	.+150    	; 0xb96 <TIM8_Init+0x232>
     b00:	ef e6       	ldi	r30, 0x6F	; 111
     b02:	f1 e0       	ldi	r31, 0x01	; 1
     b04:	c0 85       	ldd	r28, Z+8	; 0x08
     b06:	d1 85       	ldd	r29, Z+9	; 0x09
     b08:	88 81       	ld	r24, Y
     b0a:	8b 7f       	andi	r24, 0xFB	; 251
     b0c:	88 83       	st	Y, r24
     b0e:	c0 85       	ldd	r28, Z+8	; 0x08
     b10:	d1 85       	ldd	r29, Z+9	; 0x09
     b12:	88 81       	ld	r24, Y
     b14:	82 60       	ori	r24, 0x02	; 2
     b16:	88 83       	st	Y, r24
     b18:	00 84       	ldd	r0, Z+8	; 0x08
     b1a:	f1 85       	ldd	r31, Z+9	; 0x09
     b1c:	e0 2d       	mov	r30, r0
     b1e:	80 81       	ld	r24, Z
     b20:	8e 7f       	andi	r24, 0xFE	; 254
     b22:	80 83       	st	Z, r24
     b24:	38 c0       	rjmp	.+112    	; 0xb96 <TIM8_Init+0x232>
     b26:	ef e6       	ldi	r30, 0x6F	; 111
     b28:	f1 e0       	ldi	r31, 0x01	; 1
     b2a:	c0 85       	ldd	r28, Z+8	; 0x08
     b2c:	d1 85       	ldd	r29, Z+9	; 0x09
     b2e:	88 81       	ld	r24, Y
     b30:	8b 7f       	andi	r24, 0xFB	; 251
     b32:	88 83       	st	Y, r24
     b34:	c0 85       	ldd	r28, Z+8	; 0x08
     b36:	d1 85       	ldd	r29, Z+9	; 0x09
     b38:	88 81       	ld	r24, Y
     b3a:	82 60       	ori	r24, 0x02	; 2
     b3c:	88 83       	st	Y, r24
     b3e:	00 84       	ldd	r0, Z+8	; 0x08
     b40:	f1 85       	ldd	r31, Z+9	; 0x09
     b42:	e0 2d       	mov	r30, r0
     b44:	80 81       	ld	r24, Z
     b46:	81 60       	ori	r24, 0x01	; 1
     b48:	80 83       	st	Z, r24
     b4a:	25 c0       	rjmp	.+74     	; 0xb96 <TIM8_Init+0x232>
     b4c:	ef e6       	ldi	r30, 0x6F	; 111
     b4e:	f1 e0       	ldi	r31, 0x01	; 1
     b50:	c0 85       	ldd	r28, Z+8	; 0x08
     b52:	d1 85       	ldd	r29, Z+9	; 0x09
     b54:	88 81       	ld	r24, Y
     b56:	84 60       	ori	r24, 0x04	; 4
     b58:	88 83       	st	Y, r24
     b5a:	c0 85       	ldd	r28, Z+8	; 0x08
     b5c:	d1 85       	ldd	r29, Z+9	; 0x09
     b5e:	88 81       	ld	r24, Y
     b60:	8d 7f       	andi	r24, 0xFD	; 253
     b62:	88 83       	st	Y, r24
     b64:	00 84       	ldd	r0, Z+8	; 0x08
     b66:	f1 85       	ldd	r31, Z+9	; 0x09
     b68:	e0 2d       	mov	r30, r0
     b6a:	80 81       	ld	r24, Z
     b6c:	8e 7f       	andi	r24, 0xFE	; 254
     b6e:	80 83       	st	Z, r24
     b70:	12 c0       	rjmp	.+36     	; 0xb96 <TIM8_Init+0x232>
     b72:	ef e6       	ldi	r30, 0x6F	; 111
     b74:	f1 e0       	ldi	r31, 0x01	; 1
     b76:	c0 85       	ldd	r28, Z+8	; 0x08
     b78:	d1 85       	ldd	r29, Z+9	; 0x09
     b7a:	88 81       	ld	r24, Y
     b7c:	84 60       	ori	r24, 0x04	; 4
     b7e:	88 83       	st	Y, r24
     b80:	c0 85       	ldd	r28, Z+8	; 0x08
     b82:	d1 85       	ldd	r29, Z+9	; 0x09
     b84:	88 81       	ld	r24, Y
     b86:	8d 7f       	andi	r24, 0xFD	; 253
     b88:	88 83       	st	Y, r24
     b8a:	00 84       	ldd	r0, Z+8	; 0x08
     b8c:	f1 85       	ldd	r31, Z+9	; 0x09
     b8e:	e0 2d       	mov	r30, r0
     b90:	80 81       	ld	r24, Z
     b92:	81 60       	ori	r24, 0x01	; 1
     b94:	80 83       	st	Z, r24
     b96:	11 96       	adiw	r26, 0x01	; 1
     b98:	8c 91       	ld	r24, X
     b9a:	11 97       	sbiw	r26, 0x01	; 1
     b9c:	81 30       	cpi	r24, 0x01	; 1
     b9e:	19 f0       	breq	.+6      	; 0xba6 <TIM8_Init+0x242>
     ba0:	82 30       	cpi	r24, 0x02	; 2
     ba2:	d9 f0       	breq	.+54     	; 0xbda <TIM8_Init+0x276>
     ba4:	37 c0       	rjmp	.+110    	; 0xc14 <TIM8_Init+0x2b0>
     ba6:	ef e6       	ldi	r30, 0x6F	; 111
     ba8:	f1 e0       	ldi	r31, 0x01	; 1
     baa:	c0 85       	ldd	r28, Z+8	; 0x08
     bac:	d1 85       	ldd	r29, Z+9	; 0x09
     bae:	88 81       	ld	r24, Y
     bb0:	88 7f       	andi	r24, 0xF8	; 248
     bb2:	88 83       	st	Y, r24
     bb4:	c0 85       	ldd	r28, Z+8	; 0x08
     bb6:	d1 85       	ldd	r29, Z+9	; 0x09
     bb8:	88 81       	ld	r24, Y
     bba:	84 60       	ori	r24, 0x04	; 4
     bbc:	88 83       	st	Y, r24
     bbe:	c0 85       	ldd	r28, Z+8	; 0x08
     bc0:	d1 85       	ldd	r29, Z+9	; 0x09
     bc2:	88 81       	ld	r24, Y
     bc4:	82 60       	ori	r24, 0x02	; 2
     bc6:	88 83       	st	Y, r24
     bc8:	00 84       	ldd	r0, Z+8	; 0x08
     bca:	f1 85       	ldd	r31, Z+9	; 0x09
     bcc:	e0 2d       	mov	r30, r0
     bce:	80 81       	ld	r24, Z
     bd0:	8e 7f       	andi	r24, 0xFE	; 254
     bd2:	80 83       	st	Z, r24
     bd4:	e7 e7       	ldi	r30, 0x77	; 119
     bd6:	f1 e0       	ldi	r31, 0x01	; 1
     bd8:	22 c0       	rjmp	.+68     	; 0xc1e <TIM8_Init+0x2ba>
     bda:	ef e6       	ldi	r30, 0x6F	; 111
     bdc:	f1 e0       	ldi	r31, 0x01	; 1
     bde:	c0 85       	ldd	r28, Z+8	; 0x08
     be0:	d1 85       	ldd	r29, Z+9	; 0x09
     be2:	88 81       	ld	r24, Y
     be4:	88 7f       	andi	r24, 0xF8	; 248
     be6:	88 83       	st	Y, r24
     be8:	c0 85       	ldd	r28, Z+8	; 0x08
     bea:	d1 85       	ldd	r29, Z+9	; 0x09
     bec:	88 81       	ld	r24, Y
     bee:	84 60       	ori	r24, 0x04	; 4
     bf0:	88 83       	st	Y, r24
     bf2:	c0 85       	ldd	r28, Z+8	; 0x08
     bf4:	d1 85       	ldd	r29, Z+9	; 0x09
     bf6:	88 81       	ld	r24, Y
     bf8:	82 60       	ori	r24, 0x02	; 2
     bfa:	88 83       	st	Y, r24
     bfc:	00 84       	ldd	r0, Z+8	; 0x08
     bfe:	f1 85       	ldd	r31, Z+9	; 0x09
     c00:	e0 2d       	mov	r30, r0
     c02:	80 81       	ld	r24, Z
     c04:	81 60       	ori	r24, 0x01	; 1
     c06:	80 83       	st	Z, r24
     c08:	e7 e7       	ldi	r30, 0x77	; 119
     c0a:	f1 e0       	ldi	r31, 0x01	; 1
     c0c:	08 c0       	rjmp	.+16     	; 0xc1e <TIM8_Init+0x2ba>
     c0e:	ef e6       	ldi	r30, 0x6F	; 111
     c10:	f1 e0       	ldi	r31, 0x01	; 1
     c12:	02 c0       	rjmp	.+4      	; 0xc18 <TIM8_Init+0x2b4>
     c14:	e7 e7       	ldi	r30, 0x77	; 119
     c16:	f1 e0       	ldi	r31, 0x01	; 1
     c18:	30 97       	sbiw	r30, 0x00	; 0
     c1a:	09 f4       	brne	.+2      	; 0xc1e <TIM8_Init+0x2ba>
     c1c:	d4 c0       	rjmp	.+424    	; 0xdc6 <TIM8_Init+0x462>
     c1e:	13 96       	adiw	r26, 0x03	; 3
     c20:	8c 91       	ld	r24, X
     c22:	13 97       	sbiw	r26, 0x03	; 3
     c24:	82 30       	cpi	r24, 0x02	; 2
     c26:	71 f1       	breq	.+92     	; 0xc84 <TIM8_Init+0x320>
     c28:	28 f4       	brcc	.+10     	; 0xc34 <TIM8_Init+0x2d0>
     c2a:	88 23       	and	r24, r24
     c2c:	59 f0       	breq	.+22     	; 0xc44 <TIM8_Init+0x2e0>
     c2e:	81 30       	cpi	r24, 0x01	; 1
     c30:	c9 f0       	breq	.+50     	; 0xc64 <TIM8_Init+0x300>
     c32:	67 c0       	rjmp	.+206    	; 0xd02 <TIM8_Init+0x39e>
     c34:	84 30       	cpi	r24, 0x04	; 4
     c36:	09 f4       	brne	.+2      	; 0xc3a <TIM8_Init+0x2d6>
     c38:	45 c0       	rjmp	.+138    	; 0xcc4 <TIM8_Init+0x360>
     c3a:	a0 f1       	brcs	.+104    	; 0xca4 <TIM8_Init+0x340>
     c3c:	85 30       	cpi	r24, 0x05	; 5
     c3e:	09 f4       	brne	.+2      	; 0xc42 <TIM8_Init+0x2de>
     c40:	51 c0       	rjmp	.+162    	; 0xce4 <TIM8_Init+0x380>
     c42:	5f c0       	rjmp	.+190    	; 0xd02 <TIM8_Init+0x39e>
     c44:	c0 81       	ld	r28, Z
     c46:	d1 81       	ldd	r29, Z+1	; 0x01
     c48:	88 81       	ld	r24, Y
     c4a:	8f 77       	andi	r24, 0x7F	; 127
     c4c:	88 83       	st	Y, r24
     c4e:	c0 81       	ld	r28, Z
     c50:	d1 81       	ldd	r29, Z+1	; 0x01
     c52:	88 81       	ld	r24, Y
     c54:	8f 7b       	andi	r24, 0xBF	; 191
     c56:	88 83       	st	Y, r24
     c58:	c0 81       	ld	r28, Z
     c5a:	d1 81       	ldd	r29, Z+1	; 0x01
     c5c:	88 81       	ld	r24, Y
     c5e:	87 7f       	andi	r24, 0xF7	; 247
     c60:	88 83       	st	Y, r24
     c62:	4f c0       	rjmp	.+158    	; 0xd02 <TIM8_Init+0x39e>
     c64:	c0 81       	ld	r28, Z
     c66:	d1 81       	ldd	r29, Z+1	; 0x01
     c68:	88 81       	ld	r24, Y
     c6a:	8f 77       	andi	r24, 0x7F	; 127
     c6c:	88 83       	st	Y, r24
     c6e:	c0 81       	ld	r28, Z
     c70:	d1 81       	ldd	r29, Z+1	; 0x01
     c72:	88 81       	ld	r24, Y
     c74:	8f 7b       	andi	r24, 0xBF	; 191
     c76:	88 83       	st	Y, r24
     c78:	c0 81       	ld	r28, Z
     c7a:	d1 81       	ldd	r29, Z+1	; 0x01
     c7c:	88 81       	ld	r24, Y
     c7e:	88 60       	ori	r24, 0x08	; 8
     c80:	88 83       	st	Y, r24
     c82:	3f c0       	rjmp	.+126    	; 0xd02 <TIM8_Init+0x39e>
     c84:	c0 81       	ld	r28, Z
     c86:	d1 81       	ldd	r29, Z+1	; 0x01
     c88:	88 81       	ld	r24, Y
     c8a:	8f 77       	andi	r24, 0x7F	; 127
     c8c:	88 83       	st	Y, r24
     c8e:	c0 81       	ld	r28, Z
     c90:	d1 81       	ldd	r29, Z+1	; 0x01
     c92:	88 81       	ld	r24, Y
     c94:	80 64       	ori	r24, 0x40	; 64
     c96:	88 83       	st	Y, r24
     c98:	c0 81       	ld	r28, Z
     c9a:	d1 81       	ldd	r29, Z+1	; 0x01
     c9c:	88 81       	ld	r24, Y
     c9e:	88 60       	ori	r24, 0x08	; 8
     ca0:	88 83       	st	Y, r24
     ca2:	2f c0       	rjmp	.+94     	; 0xd02 <TIM8_Init+0x39e>
     ca4:	c0 81       	ld	r28, Z
     ca6:	d1 81       	ldd	r29, Z+1	; 0x01
     ca8:	88 81       	ld	r24, Y
     caa:	8f 77       	andi	r24, 0x7F	; 127
     cac:	88 83       	st	Y, r24
     cae:	c0 81       	ld	r28, Z
     cb0:	d1 81       	ldd	r29, Z+1	; 0x01
     cb2:	88 81       	ld	r24, Y
     cb4:	80 64       	ori	r24, 0x40	; 64
     cb6:	88 83       	st	Y, r24
     cb8:	c0 81       	ld	r28, Z
     cba:	d1 81       	ldd	r29, Z+1	; 0x01
     cbc:	88 81       	ld	r24, Y
     cbe:	87 7f       	andi	r24, 0xF7	; 247
     cc0:	88 83       	st	Y, r24
     cc2:	1f c0       	rjmp	.+62     	; 0xd02 <TIM8_Init+0x39e>
     cc4:	c0 81       	ld	r28, Z
     cc6:	d1 81       	ldd	r29, Z+1	; 0x01
     cc8:	88 81       	ld	r24, Y
     cca:	80 68       	ori	r24, 0x80	; 128
     ccc:	88 83       	st	Y, r24
     cce:	c0 81       	ld	r28, Z
     cd0:	d1 81       	ldd	r29, Z+1	; 0x01
     cd2:	88 81       	ld	r24, Y
     cd4:	8f 7b       	andi	r24, 0xBF	; 191
     cd6:	88 83       	st	Y, r24
     cd8:	c0 81       	ld	r28, Z
     cda:	d1 81       	ldd	r29, Z+1	; 0x01
     cdc:	88 81       	ld	r24, Y
     cde:	87 7f       	andi	r24, 0xF7	; 247
     ce0:	88 83       	st	Y, r24
     ce2:	0f c0       	rjmp	.+30     	; 0xd02 <TIM8_Init+0x39e>
     ce4:	c0 81       	ld	r28, Z
     ce6:	d1 81       	ldd	r29, Z+1	; 0x01
     ce8:	88 81       	ld	r24, Y
     cea:	80 68       	ori	r24, 0x80	; 128
     cec:	88 83       	st	Y, r24
     cee:	c0 81       	ld	r28, Z
     cf0:	d1 81       	ldd	r29, Z+1	; 0x01
     cf2:	88 81       	ld	r24, Y
     cf4:	8f 7b       	andi	r24, 0xBF	; 191
     cf6:	88 83       	st	Y, r24
     cf8:	c0 81       	ld	r28, Z
     cfa:	d1 81       	ldd	r29, Z+1	; 0x01
     cfc:	88 81       	ld	r24, Y
     cfe:	88 60       	ori	r24, 0x08	; 8
     d00:	88 83       	st	Y, r24
     d02:	15 96       	adiw	r26, 0x05	; 5
     d04:	8c 91       	ld	r24, X
     d06:	15 97       	sbiw	r26, 0x05	; 5
     d08:	82 30       	cpi	r24, 0x02	; 2
     d0a:	11 f1       	breq	.+68     	; 0xd50 <TIM8_Init+0x3ec>
     d0c:	28 f4       	brcc	.+10     	; 0xd18 <TIM8_Init+0x3b4>
     d0e:	88 23       	and	r24, r24
     d10:	49 f0       	breq	.+18     	; 0xd24 <TIM8_Init+0x3c0>
     d12:	81 30       	cpi	r24, 0x01	; 1
     d14:	91 f0       	breq	.+36     	; 0xd3a <TIM8_Init+0x3d6>
     d16:	47 c0       	rjmp	.+142    	; 0xda6 <TIM8_Init+0x442>
     d18:	84 30       	cpi	r24, 0x04	; 4
     d1a:	81 f1       	breq	.+96     	; 0xd7c <TIM8_Init+0x418>
     d1c:	20 f1       	brcs	.+72     	; 0xd66 <TIM8_Init+0x402>
     d1e:	85 30       	cpi	r24, 0x05	; 5
     d20:	c1 f1       	breq	.+112    	; 0xd92 <TIM8_Init+0x42e>
     d22:	41 c0       	rjmp	.+130    	; 0xda6 <TIM8_Init+0x442>
     d24:	c0 81       	ld	r28, Z
     d26:	d1 81       	ldd	r29, Z+1	; 0x01
     d28:	88 81       	ld	r24, Y
     d2a:	8f 7e       	andi	r24, 0xEF	; 239
     d2c:	88 83       	st	Y, r24
     d2e:	c0 81       	ld	r28, Z
     d30:	d1 81       	ldd	r29, Z+1	; 0x01
     d32:	88 81       	ld	r24, Y
     d34:	8f 7d       	andi	r24, 0xDF	; 223
     d36:	88 83       	st	Y, r24
     d38:	36 c0       	rjmp	.+108    	; 0xda6 <TIM8_Init+0x442>
     d3a:	c0 81       	ld	r28, Z
     d3c:	d1 81       	ldd	r29, Z+1	; 0x01
     d3e:	88 81       	ld	r24, Y
     d40:	80 61       	ori	r24, 0x10	; 16
     d42:	88 83       	st	Y, r24
     d44:	c0 81       	ld	r28, Z
     d46:	d1 81       	ldd	r29, Z+1	; 0x01
     d48:	88 81       	ld	r24, Y
     d4a:	8f 7d       	andi	r24, 0xDF	; 223
     d4c:	88 83       	st	Y, r24
     d4e:	2b c0       	rjmp	.+86     	; 0xda6 <TIM8_Init+0x442>
     d50:	c0 81       	ld	r28, Z
     d52:	d1 81       	ldd	r29, Z+1	; 0x01
     d54:	88 81       	ld	r24, Y
     d56:	8f 7e       	andi	r24, 0xEF	; 239
     d58:	88 83       	st	Y, r24
     d5a:	c0 81       	ld	r28, Z
     d5c:	d1 81       	ldd	r29, Z+1	; 0x01
     d5e:	88 81       	ld	r24, Y
     d60:	80 62       	ori	r24, 0x20	; 32
     d62:	88 83       	st	Y, r24
     d64:	20 c0       	rjmp	.+64     	; 0xda6 <TIM8_Init+0x442>
     d66:	c0 81       	ld	r28, Z
     d68:	d1 81       	ldd	r29, Z+1	; 0x01
     d6a:	88 81       	ld	r24, Y
     d6c:	80 61       	ori	r24, 0x10	; 16
     d6e:	88 83       	st	Y, r24
     d70:	c0 81       	ld	r28, Z
     d72:	d1 81       	ldd	r29, Z+1	; 0x01
     d74:	88 81       	ld	r24, Y
     d76:	80 62       	ori	r24, 0x20	; 32
     d78:	88 83       	st	Y, r24
     d7a:	15 c0       	rjmp	.+42     	; 0xda6 <TIM8_Init+0x442>
     d7c:	c0 81       	ld	r28, Z
     d7e:	d1 81       	ldd	r29, Z+1	; 0x01
     d80:	88 81       	ld	r24, Y
     d82:	8f 7e       	andi	r24, 0xEF	; 239
     d84:	88 83       	st	Y, r24
     d86:	c0 81       	ld	r28, Z
     d88:	d1 81       	ldd	r29, Z+1	; 0x01
     d8a:	88 81       	ld	r24, Y
     d8c:	80 62       	ori	r24, 0x20	; 32
     d8e:	88 83       	st	Y, r24
     d90:	0a c0       	rjmp	.+20     	; 0xda6 <TIM8_Init+0x442>
     d92:	c0 81       	ld	r28, Z
     d94:	d1 81       	ldd	r29, Z+1	; 0x01
     d96:	88 81       	ld	r24, Y
     d98:	80 61       	ori	r24, 0x10	; 16
     d9a:	88 83       	st	Y, r24
     d9c:	c0 81       	ld	r28, Z
     d9e:	d1 81       	ldd	r29, Z+1	; 0x01
     da0:	88 81       	ld	r24, Y
     da2:	80 62       	ori	r24, 0x20	; 32
     da4:	88 83       	st	Y, r24
     da6:	c2 81       	ldd	r28, Z+2	; 0x02
     da8:	d3 81       	ldd	r29, Z+3	; 0x03
     daa:	17 96       	adiw	r26, 0x07	; 7
     dac:	8c 91       	ld	r24, X
     dae:	17 97       	sbiw	r26, 0x07	; 7
     db0:	88 83       	st	Y, r24
     db2:	04 80       	ldd	r0, Z+4	; 0x04
     db4:	f5 81       	ldd	r31, Z+5	; 0x05
     db6:	e0 2d       	mov	r30, r0
     db8:	19 96       	adiw	r26, 0x09	; 9
     dba:	8c 91       	ld	r24, X
     dbc:	80 83       	st	Z, r24
     dbe:	80 e0       	ldi	r24, 0x00	; 0
     dc0:	03 c0       	rjmp	.+6      	; 0xdc8 <TIM8_Init+0x464>
     dc2:	81 e0       	ldi	r24, 0x01	; 1
     dc4:	01 c0       	rjmp	.+2      	; 0xdc8 <TIM8_Init+0x464>
     dc6:	81 e0       	ldi	r24, 0x01	; 1
     dc8:	df 91       	pop	r29
     dca:	cf 91       	pop	r28
     dcc:	08 95       	ret

00000dce <TIM16_Init>:
     dce:	cf 93       	push	r28
     dd0:	df 93       	push	r29
     dd2:	ec 01       	movw	r28, r24
     dd4:	88 81       	ld	r24, Y
     dd6:	81 30       	cpi	r24, 0x01	; 1
     dd8:	09 f4       	brne	.+2      	; 0xddc <TIM16_Init+0xe>
     dda:	8b c4       	rjmp	.+2326   	; 0x16f2 <__stack+0x5f3>
     ddc:	83 30       	cpi	r24, 0x03	; 3
     dde:	09 f4       	brne	.+2      	; 0xde2 <TIM16_Init+0x14>
     de0:	8b c4       	rjmp	.+2326   	; 0x16f8 <__stack+0x5f9>
     de2:	81 e0       	ldi	r24, 0x01	; 1
     de4:	a9 c4       	rjmp	.+2386   	; 0x1738 <__stack+0x639>
     de6:	12 96       	adiw	r26, 0x02	; 2
     de8:	ed 91       	ld	r30, X+
     dea:	fc 91       	ld	r31, X
     dec:	13 97       	sbiw	r26, 0x03	; 3
     dee:	80 81       	ld	r24, Z
     df0:	8b 7f       	andi	r24, 0xFB	; 251
     df2:	80 83       	st	Z, r24
     df4:	12 96       	adiw	r26, 0x02	; 2
     df6:	ed 91       	ld	r30, X+
     df8:	fc 91       	ld	r31, X
     dfa:	13 97       	sbiw	r26, 0x03	; 3
     dfc:	80 81       	ld	r24, Z
     dfe:	8d 7f       	andi	r24, 0xFD	; 253
     e00:	80 83       	st	Z, r24
     e02:	12 96       	adiw	r26, 0x02	; 2
     e04:	ed 91       	ld	r30, X+
     e06:	fc 91       	ld	r31, X
     e08:	13 97       	sbiw	r26, 0x03	; 3
     e0a:	80 81       	ld	r24, Z
     e0c:	81 60       	ori	r24, 0x01	; 1
     e0e:	80 83       	st	Z, r24
     e10:	57 c0       	rjmp	.+174    	; 0xec0 <TIM16_Init+0xf2>
     e12:	12 96       	adiw	r26, 0x02	; 2
     e14:	ed 91       	ld	r30, X+
     e16:	fc 91       	ld	r31, X
     e18:	13 97       	sbiw	r26, 0x03	; 3
     e1a:	80 81       	ld	r24, Z
     e1c:	8b 7f       	andi	r24, 0xFB	; 251
     e1e:	80 83       	st	Z, r24
     e20:	12 96       	adiw	r26, 0x02	; 2
     e22:	ed 91       	ld	r30, X+
     e24:	fc 91       	ld	r31, X
     e26:	13 97       	sbiw	r26, 0x03	; 3
     e28:	80 81       	ld	r24, Z
     e2a:	82 60       	ori	r24, 0x02	; 2
     e2c:	80 83       	st	Z, r24
     e2e:	12 96       	adiw	r26, 0x02	; 2
     e30:	ed 91       	ld	r30, X+
     e32:	fc 91       	ld	r31, X
     e34:	13 97       	sbiw	r26, 0x03	; 3
     e36:	80 81       	ld	r24, Z
     e38:	8e 7f       	andi	r24, 0xFE	; 254
     e3a:	80 83       	st	Z, r24
     e3c:	41 c0       	rjmp	.+130    	; 0xec0 <TIM16_Init+0xf2>
     e3e:	12 96       	adiw	r26, 0x02	; 2
     e40:	ed 91       	ld	r30, X+
     e42:	fc 91       	ld	r31, X
     e44:	13 97       	sbiw	r26, 0x03	; 3
     e46:	80 81       	ld	r24, Z
     e48:	8b 7f       	andi	r24, 0xFB	; 251
     e4a:	80 83       	st	Z, r24
     e4c:	12 96       	adiw	r26, 0x02	; 2
     e4e:	ed 91       	ld	r30, X+
     e50:	fc 91       	ld	r31, X
     e52:	13 97       	sbiw	r26, 0x03	; 3
     e54:	80 81       	ld	r24, Z
     e56:	82 60       	ori	r24, 0x02	; 2
     e58:	80 83       	st	Z, r24
     e5a:	12 96       	adiw	r26, 0x02	; 2
     e5c:	ed 91       	ld	r30, X+
     e5e:	fc 91       	ld	r31, X
     e60:	13 97       	sbiw	r26, 0x03	; 3
     e62:	80 81       	ld	r24, Z
     e64:	81 60       	ori	r24, 0x01	; 1
     e66:	80 83       	st	Z, r24
     e68:	2b c0       	rjmp	.+86     	; 0xec0 <TIM16_Init+0xf2>
     e6a:	12 96       	adiw	r26, 0x02	; 2
     e6c:	ed 91       	ld	r30, X+
     e6e:	fc 91       	ld	r31, X
     e70:	13 97       	sbiw	r26, 0x03	; 3
     e72:	80 81       	ld	r24, Z
     e74:	84 60       	ori	r24, 0x04	; 4
     e76:	80 83       	st	Z, r24
     e78:	12 96       	adiw	r26, 0x02	; 2
     e7a:	ed 91       	ld	r30, X+
     e7c:	fc 91       	ld	r31, X
     e7e:	13 97       	sbiw	r26, 0x03	; 3
     e80:	80 81       	ld	r24, Z
     e82:	8d 7f       	andi	r24, 0xFD	; 253
     e84:	80 83       	st	Z, r24
     e86:	12 96       	adiw	r26, 0x02	; 2
     e88:	ed 91       	ld	r30, X+
     e8a:	fc 91       	ld	r31, X
     e8c:	13 97       	sbiw	r26, 0x03	; 3
     e8e:	80 81       	ld	r24, Z
     e90:	8e 7f       	andi	r24, 0xFE	; 254
     e92:	80 83       	st	Z, r24
     e94:	15 c0       	rjmp	.+42     	; 0xec0 <TIM16_Init+0xf2>
     e96:	12 96       	adiw	r26, 0x02	; 2
     e98:	ed 91       	ld	r30, X+
     e9a:	fc 91       	ld	r31, X
     e9c:	13 97       	sbiw	r26, 0x03	; 3
     e9e:	80 81       	ld	r24, Z
     ea0:	84 60       	ori	r24, 0x04	; 4
     ea2:	80 83       	st	Z, r24
     ea4:	12 96       	adiw	r26, 0x02	; 2
     ea6:	ed 91       	ld	r30, X+
     ea8:	fc 91       	ld	r31, X
     eaa:	13 97       	sbiw	r26, 0x03	; 3
     eac:	80 81       	ld	r24, Z
     eae:	8d 7f       	andi	r24, 0xFD	; 253
     eb0:	80 83       	st	Z, r24
     eb2:	12 96       	adiw	r26, 0x02	; 2
     eb4:	ed 91       	ld	r30, X+
     eb6:	fc 91       	ld	r31, X
     eb8:	13 97       	sbiw	r26, 0x03	; 3
     eba:	80 81       	ld	r24, Z
     ebc:	81 60       	ori	r24, 0x01	; 1
     ebe:	80 83       	st	Z, r24
     ec0:	89 81       	ldd	r24, Y+1	; 0x01
     ec2:	81 30       	cpi	r24, 0x01	; 1
     ec4:	19 f0       	breq	.+6      	; 0xecc <TIM16_Init+0xfe>
     ec6:	82 30       	cpi	r24, 0x02	; 2
     ec8:	f1 f0       	breq	.+60     	; 0xf06 <TIM16_Init+0x138>
     eca:	39 c0       	rjmp	.+114    	; 0xf3e <TIM16_Init+0x170>
     ecc:	12 96       	adiw	r26, 0x02	; 2
     ece:	ed 91       	ld	r30, X+
     ed0:	fc 91       	ld	r31, X
     ed2:	13 97       	sbiw	r26, 0x03	; 3
     ed4:	80 81       	ld	r24, Z
     ed6:	88 7f       	andi	r24, 0xF8	; 248
     ed8:	80 83       	st	Z, r24
     eda:	12 96       	adiw	r26, 0x02	; 2
     edc:	ed 91       	ld	r30, X+
     ede:	fc 91       	ld	r31, X
     ee0:	13 97       	sbiw	r26, 0x03	; 3
     ee2:	80 81       	ld	r24, Z
     ee4:	84 60       	ori	r24, 0x04	; 4
     ee6:	80 83       	st	Z, r24
     ee8:	12 96       	adiw	r26, 0x02	; 2
     eea:	ed 91       	ld	r30, X+
     eec:	fc 91       	ld	r31, X
     eee:	13 97       	sbiw	r26, 0x03	; 3
     ef0:	80 81       	ld	r24, Z
     ef2:	82 60       	ori	r24, 0x02	; 2
     ef4:	80 83       	st	Z, r24
     ef6:	12 96       	adiw	r26, 0x02	; 2
     ef8:	ed 91       	ld	r30, X+
     efa:	fc 91       	ld	r31, X
     efc:	13 97       	sbiw	r26, 0x03	; 3
     efe:	80 81       	ld	r24, Z
     f00:	8e 7f       	andi	r24, 0xFE	; 254
     f02:	80 83       	st	Z, r24
     f04:	1c c0       	rjmp	.+56     	; 0xf3e <TIM16_Init+0x170>
     f06:	12 96       	adiw	r26, 0x02	; 2
     f08:	ed 91       	ld	r30, X+
     f0a:	fc 91       	ld	r31, X
     f0c:	13 97       	sbiw	r26, 0x03	; 3
     f0e:	80 81       	ld	r24, Z
     f10:	88 7f       	andi	r24, 0xF8	; 248
     f12:	80 83       	st	Z, r24
     f14:	12 96       	adiw	r26, 0x02	; 2
     f16:	ed 91       	ld	r30, X+
     f18:	fc 91       	ld	r31, X
     f1a:	13 97       	sbiw	r26, 0x03	; 3
     f1c:	80 81       	ld	r24, Z
     f1e:	84 60       	ori	r24, 0x04	; 4
     f20:	80 83       	st	Z, r24
     f22:	12 96       	adiw	r26, 0x02	; 2
     f24:	ed 91       	ld	r30, X+
     f26:	fc 91       	ld	r31, X
     f28:	13 97       	sbiw	r26, 0x03	; 3
     f2a:	80 81       	ld	r24, Z
     f2c:	82 60       	ori	r24, 0x02	; 2
     f2e:	80 83       	st	Z, r24
     f30:	12 96       	adiw	r26, 0x02	; 2
     f32:	ed 91       	ld	r30, X+
     f34:	fc 91       	ld	r31, X
     f36:	13 97       	sbiw	r26, 0x03	; 3
     f38:	80 81       	ld	r24, Z
     f3a:	81 60       	ori	r24, 0x01	; 1
     f3c:	80 83       	st	Z, r24
     f3e:	eb 81       	ldd	r30, Y+3	; 0x03
     f40:	4e 2f       	mov	r20, r30
     f42:	50 e0       	ldi	r21, 0x00	; 0
     f44:	43 31       	cpi	r20, 0x13	; 19
     f46:	51 05       	cpc	r21, r1
     f48:	08 f0       	brcs	.+2      	; 0xf4c <TIM16_Init+0x17e>
     f4a:	0c c2       	rjmp	.+1048   	; 0x1364 <__stack+0x265>
     f4c:	fa 01       	movw	r30, r20
     f4e:	e3 5b       	subi	r30, 0xB3	; 179
     f50:	ff 4f       	sbci	r31, 0xFF	; 255
     f52:	96 c6       	rjmp	.+3372   	; 0x1c80 <__tablejump2__>
     f54:	ed 91       	ld	r30, X+
     f56:	fc 91       	ld	r31, X
     f58:	11 97       	sbiw	r26, 0x01	; 1
     f5a:	80 81       	ld	r24, Z
     f5c:	8e 7f       	andi	r24, 0xFE	; 254
     f5e:	80 83       	st	Z, r24
     f60:	ed 91       	ld	r30, X+
     f62:	fc 91       	ld	r31, X
     f64:	11 97       	sbiw	r26, 0x01	; 1
     f66:	80 81       	ld	r24, Z
     f68:	8d 7f       	andi	r24, 0xFD	; 253
     f6a:	80 83       	st	Z, r24
     f6c:	12 96       	adiw	r26, 0x02	; 2
     f6e:	ed 91       	ld	r30, X+
     f70:	fc 91       	ld	r31, X
     f72:	13 97       	sbiw	r26, 0x03	; 3
     f74:	80 81       	ld	r24, Z
     f76:	87 7f       	andi	r24, 0xF7	; 247
     f78:	80 83       	st	Z, r24
     f7a:	12 96       	adiw	r26, 0x02	; 2
     f7c:	ed 91       	ld	r30, X+
     f7e:	fc 91       	ld	r31, X
     f80:	13 97       	sbiw	r26, 0x03	; 3
     f82:	80 81       	ld	r24, Z
     f84:	8f 7e       	andi	r24, 0xEF	; 239
     f86:	80 83       	st	Z, r24
     f88:	ed c1       	rjmp	.+986    	; 0x1364 <__stack+0x265>
     f8a:	ed 91       	ld	r30, X+
     f8c:	fc 91       	ld	r31, X
     f8e:	11 97       	sbiw	r26, 0x01	; 1
     f90:	80 81       	ld	r24, Z
     f92:	8e 7f       	andi	r24, 0xFE	; 254
     f94:	80 83       	st	Z, r24
     f96:	ed 91       	ld	r30, X+
     f98:	fc 91       	ld	r31, X
     f9a:	11 97       	sbiw	r26, 0x01	; 1
     f9c:	80 81       	ld	r24, Z
     f9e:	8d 7f       	andi	r24, 0xFD	; 253
     fa0:	80 83       	st	Z, r24
     fa2:	12 96       	adiw	r26, 0x02	; 2
     fa4:	ed 91       	ld	r30, X+
     fa6:	fc 91       	ld	r31, X
     fa8:	13 97       	sbiw	r26, 0x03	; 3
     faa:	80 81       	ld	r24, Z
     fac:	88 60       	ori	r24, 0x08	; 8
     fae:	80 83       	st	Z, r24
     fb0:	12 96       	adiw	r26, 0x02	; 2
     fb2:	ed 91       	ld	r30, X+
     fb4:	fc 91       	ld	r31, X
     fb6:	13 97       	sbiw	r26, 0x03	; 3
     fb8:	80 81       	ld	r24, Z
     fba:	8f 7e       	andi	r24, 0xEF	; 239
     fbc:	80 83       	st	Z, r24
     fbe:	d2 c1       	rjmp	.+932    	; 0x1364 <__stack+0x265>
     fc0:	ed 91       	ld	r30, X+
     fc2:	fc 91       	ld	r31, X
     fc4:	11 97       	sbiw	r26, 0x01	; 1
     fc6:	80 81       	ld	r24, Z
     fc8:	81 60       	ori	r24, 0x01	; 1
     fca:	80 83       	st	Z, r24
     fcc:	ed 91       	ld	r30, X+
     fce:	fc 91       	ld	r31, X
     fd0:	11 97       	sbiw	r26, 0x01	; 1
     fd2:	80 81       	ld	r24, Z
     fd4:	82 60       	ori	r24, 0x02	; 2
     fd6:	80 83       	st	Z, r24
     fd8:	12 96       	adiw	r26, 0x02	; 2
     fda:	ed 91       	ld	r30, X+
     fdc:	fc 91       	ld	r31, X
     fde:	13 97       	sbiw	r26, 0x03	; 3
     fe0:	80 81       	ld	r24, Z
     fe2:	88 60       	ori	r24, 0x08	; 8
     fe4:	80 83       	st	Z, r24
     fe6:	12 96       	adiw	r26, 0x02	; 2
     fe8:	ed 91       	ld	r30, X+
     fea:	fc 91       	ld	r31, X
     fec:	13 97       	sbiw	r26, 0x03	; 3
     fee:	80 81       	ld	r24, Z
     ff0:	80 61       	ori	r24, 0x10	; 16
     ff2:	80 83       	st	Z, r24
     ff4:	b7 c1       	rjmp	.+878    	; 0x1364 <__stack+0x265>
     ff6:	ed 91       	ld	r30, X+
     ff8:	fc 91       	ld	r31, X
     ffa:	11 97       	sbiw	r26, 0x01	; 1
     ffc:	80 81       	ld	r24, Z
     ffe:	81 60       	ori	r24, 0x01	; 1
    1000:	80 83       	st	Z, r24
    1002:	ed 91       	ld	r30, X+
    1004:	fc 91       	ld	r31, X
    1006:	11 97       	sbiw	r26, 0x01	; 1
    1008:	80 81       	ld	r24, Z
    100a:	82 60       	ori	r24, 0x02	; 2
    100c:	80 83       	st	Z, r24
    100e:	12 96       	adiw	r26, 0x02	; 2
    1010:	ed 91       	ld	r30, X+
    1012:	fc 91       	ld	r31, X
    1014:	13 97       	sbiw	r26, 0x03	; 3
    1016:	80 81       	ld	r24, Z
    1018:	87 7f       	andi	r24, 0xF7	; 247
    101a:	80 83       	st	Z, r24
    101c:	12 96       	adiw	r26, 0x02	; 2
    101e:	ed 91       	ld	r30, X+
    1020:	fc 91       	ld	r31, X
    1022:	13 97       	sbiw	r26, 0x03	; 3
    1024:	80 81       	ld	r24, Z
    1026:	80 61       	ori	r24, 0x10	; 16
    1028:	80 83       	st	Z, r24
    102a:	9c c1       	rjmp	.+824    	; 0x1364 <__stack+0x265>
    102c:	ed 91       	ld	r30, X+
    102e:	fc 91       	ld	r31, X
    1030:	11 97       	sbiw	r26, 0x01	; 1
    1032:	80 81       	ld	r24, Z
    1034:	81 60       	ori	r24, 0x01	; 1
    1036:	80 83       	st	Z, r24
    1038:	ed 91       	ld	r30, X+
    103a:	fc 91       	ld	r31, X
    103c:	11 97       	sbiw	r26, 0x01	; 1
    103e:	80 81       	ld	r24, Z
    1040:	8d 7f       	andi	r24, 0xFD	; 253
    1042:	80 83       	st	Z, r24
    1044:	12 96       	adiw	r26, 0x02	; 2
    1046:	ed 91       	ld	r30, X+
    1048:	fc 91       	ld	r31, X
    104a:	13 97       	sbiw	r26, 0x03	; 3
    104c:	80 81       	ld	r24, Z
    104e:	87 7f       	andi	r24, 0xF7	; 247
    1050:	80 83       	st	Z, r24
    1052:	12 96       	adiw	r26, 0x02	; 2
    1054:	ed 91       	ld	r30, X+
    1056:	fc 91       	ld	r31, X
    1058:	13 97       	sbiw	r26, 0x03	; 3
    105a:	80 81       	ld	r24, Z
    105c:	80 61       	ori	r24, 0x10	; 16
    105e:	80 83       	st	Z, r24
    1060:	81 c1       	rjmp	.+770    	; 0x1364 <__stack+0x265>
    1062:	ed 91       	ld	r30, X+
    1064:	fc 91       	ld	r31, X
    1066:	11 97       	sbiw	r26, 0x01	; 1
    1068:	80 81       	ld	r24, Z
    106a:	8e 7f       	andi	r24, 0xFE	; 254
    106c:	80 83       	st	Z, r24
    106e:	ed 91       	ld	r30, X+
    1070:	fc 91       	ld	r31, X
    1072:	11 97       	sbiw	r26, 0x01	; 1
    1074:	80 81       	ld	r24, Z
    1076:	8d 7f       	andi	r24, 0xFD	; 253
    1078:	80 83       	st	Z, r24
    107a:	12 96       	adiw	r26, 0x02	; 2
    107c:	ed 91       	ld	r30, X+
    107e:	fc 91       	ld	r31, X
    1080:	13 97       	sbiw	r26, 0x03	; 3
    1082:	80 81       	ld	r24, Z
    1084:	88 60       	ori	r24, 0x08	; 8
    1086:	80 83       	st	Z, r24
    1088:	12 96       	adiw	r26, 0x02	; 2
    108a:	ed 91       	ld	r30, X+
    108c:	fc 91       	ld	r31, X
    108e:	13 97       	sbiw	r26, 0x03	; 3
    1090:	80 81       	ld	r24, Z
    1092:	80 61       	ori	r24, 0x10	; 16
    1094:	80 83       	st	Z, r24
    1096:	66 c1       	rjmp	.+716    	; 0x1364 <__stack+0x265>
    1098:	ed 91       	ld	r30, X+
    109a:	fc 91       	ld	r31, X
    109c:	11 97       	sbiw	r26, 0x01	; 1
    109e:	80 81       	ld	r24, Z
    10a0:	8e 7f       	andi	r24, 0xFE	; 254
    10a2:	80 83       	st	Z, r24
    10a4:	ed 91       	ld	r30, X+
    10a6:	fc 91       	ld	r31, X
    10a8:	11 97       	sbiw	r26, 0x01	; 1
    10aa:	80 81       	ld	r24, Z
    10ac:	82 60       	ori	r24, 0x02	; 2
    10ae:	80 83       	st	Z, r24
    10b0:	12 96       	adiw	r26, 0x02	; 2
    10b2:	ed 91       	ld	r30, X+
    10b4:	fc 91       	ld	r31, X
    10b6:	13 97       	sbiw	r26, 0x03	; 3
    10b8:	80 81       	ld	r24, Z
    10ba:	88 60       	ori	r24, 0x08	; 8
    10bc:	80 83       	st	Z, r24
    10be:	12 96       	adiw	r26, 0x02	; 2
    10c0:	ed 91       	ld	r30, X+
    10c2:	fc 91       	ld	r31, X
    10c4:	13 97       	sbiw	r26, 0x03	; 3
    10c6:	80 81       	ld	r24, Z
    10c8:	80 61       	ori	r24, 0x10	; 16
    10ca:	80 83       	st	Z, r24
    10cc:	4b c1       	rjmp	.+662    	; 0x1364 <__stack+0x265>
    10ce:	ed 91       	ld	r30, X+
    10d0:	fc 91       	ld	r31, X
    10d2:	11 97       	sbiw	r26, 0x01	; 1
    10d4:	80 81       	ld	r24, Z
    10d6:	8e 7f       	andi	r24, 0xFE	; 254
    10d8:	80 83       	st	Z, r24
    10da:	ed 91       	ld	r30, X+
    10dc:	fc 91       	ld	r31, X
    10de:	11 97       	sbiw	r26, 0x01	; 1
    10e0:	80 81       	ld	r24, Z
    10e2:	82 60       	ori	r24, 0x02	; 2
    10e4:	80 83       	st	Z, r24
    10e6:	12 96       	adiw	r26, 0x02	; 2
    10e8:	ed 91       	ld	r30, X+
    10ea:	fc 91       	ld	r31, X
    10ec:	13 97       	sbiw	r26, 0x03	; 3
    10ee:	80 81       	ld	r24, Z
    10f0:	87 7f       	andi	r24, 0xF7	; 247
    10f2:	80 83       	st	Z, r24
    10f4:	12 96       	adiw	r26, 0x02	; 2
    10f6:	ed 91       	ld	r30, X+
    10f8:	fc 91       	ld	r31, X
    10fa:	13 97       	sbiw	r26, 0x03	; 3
    10fc:	80 81       	ld	r24, Z
    10fe:	80 61       	ori	r24, 0x10	; 16
    1100:	80 83       	st	Z, r24
    1102:	30 c1       	rjmp	.+608    	; 0x1364 <__stack+0x265>
    1104:	ed 91       	ld	r30, X+
    1106:	fc 91       	ld	r31, X
    1108:	11 97       	sbiw	r26, 0x01	; 1
    110a:	80 81       	ld	r24, Z
    110c:	8e 7f       	andi	r24, 0xFE	; 254
    110e:	80 83       	st	Z, r24
    1110:	ed 91       	ld	r30, X+
    1112:	fc 91       	ld	r31, X
    1114:	11 97       	sbiw	r26, 0x01	; 1
    1116:	80 81       	ld	r24, Z
    1118:	8d 7f       	andi	r24, 0xFD	; 253
    111a:	80 83       	st	Z, r24
    111c:	12 96       	adiw	r26, 0x02	; 2
    111e:	ed 91       	ld	r30, X+
    1120:	fc 91       	ld	r31, X
    1122:	13 97       	sbiw	r26, 0x03	; 3
    1124:	80 81       	ld	r24, Z
    1126:	87 7f       	andi	r24, 0xF7	; 247
    1128:	80 83       	st	Z, r24
    112a:	12 96       	adiw	r26, 0x02	; 2
    112c:	ed 91       	ld	r30, X+
    112e:	fc 91       	ld	r31, X
    1130:	13 97       	sbiw	r26, 0x03	; 3
    1132:	80 81       	ld	r24, Z
    1134:	80 61       	ori	r24, 0x10	; 16
    1136:	80 83       	st	Z, r24
    1138:	15 c1       	rjmp	.+554    	; 0x1364 <__stack+0x265>
    113a:	ed 91       	ld	r30, X+
    113c:	fc 91       	ld	r31, X
    113e:	11 97       	sbiw	r26, 0x01	; 1
    1140:	80 81       	ld	r24, Z
    1142:	81 60       	ori	r24, 0x01	; 1
    1144:	80 83       	st	Z, r24
    1146:	ed 91       	ld	r30, X+
    1148:	fc 91       	ld	r31, X
    114a:	11 97       	sbiw	r26, 0x01	; 1
    114c:	80 81       	ld	r24, Z
    114e:	8d 7f       	andi	r24, 0xFD	; 253
    1150:	80 83       	st	Z, r24
    1152:	12 96       	adiw	r26, 0x02	; 2
    1154:	ed 91       	ld	r30, X+
    1156:	fc 91       	ld	r31, X
    1158:	13 97       	sbiw	r26, 0x03	; 3
    115a:	80 81       	ld	r24, Z
    115c:	88 60       	ori	r24, 0x08	; 8
    115e:	80 83       	st	Z, r24
    1160:	12 96       	adiw	r26, 0x02	; 2
    1162:	ed 91       	ld	r30, X+
    1164:	fc 91       	ld	r31, X
    1166:	13 97       	sbiw	r26, 0x03	; 3
    1168:	80 81       	ld	r24, Z
    116a:	8f 7e       	andi	r24, 0xEF	; 239
    116c:	80 83       	st	Z, r24
    116e:	fa c0       	rjmp	.+500    	; 0x1364 <__stack+0x265>
    1170:	ed 91       	ld	r30, X+
    1172:	fc 91       	ld	r31, X
    1174:	11 97       	sbiw	r26, 0x01	; 1
    1176:	80 81       	ld	r24, Z
    1178:	8e 7f       	andi	r24, 0xFE	; 254
    117a:	80 83       	st	Z, r24
    117c:	ed 91       	ld	r30, X+
    117e:	fc 91       	ld	r31, X
    1180:	11 97       	sbiw	r26, 0x01	; 1
    1182:	80 81       	ld	r24, Z
    1184:	82 60       	ori	r24, 0x02	; 2
    1186:	80 83       	st	Z, r24
    1188:	12 96       	adiw	r26, 0x02	; 2
    118a:	ed 91       	ld	r30, X+
    118c:	fc 91       	ld	r31, X
    118e:	13 97       	sbiw	r26, 0x03	; 3
    1190:	80 81       	ld	r24, Z
    1192:	88 60       	ori	r24, 0x08	; 8
    1194:	80 83       	st	Z, r24
    1196:	12 96       	adiw	r26, 0x02	; 2
    1198:	ed 91       	ld	r30, X+
    119a:	fc 91       	ld	r31, X
    119c:	13 97       	sbiw	r26, 0x03	; 3
    119e:	80 81       	ld	r24, Z
    11a0:	8f 7e       	andi	r24, 0xEF	; 239
    11a2:	80 83       	st	Z, r24
    11a4:	df c0       	rjmp	.+446    	; 0x1364 <__stack+0x265>
    11a6:	ed 91       	ld	r30, X+
    11a8:	fc 91       	ld	r31, X
    11aa:	11 97       	sbiw	r26, 0x01	; 1
    11ac:	80 81       	ld	r24, Z
    11ae:	81 60       	ori	r24, 0x01	; 1
    11b0:	80 83       	st	Z, r24
    11b2:	ed 91       	ld	r30, X+
    11b4:	fc 91       	ld	r31, X
    11b6:	11 97       	sbiw	r26, 0x01	; 1
    11b8:	80 81       	ld	r24, Z
    11ba:	82 60       	ori	r24, 0x02	; 2
    11bc:	80 83       	st	Z, r24
    11be:	12 96       	adiw	r26, 0x02	; 2
    11c0:	ed 91       	ld	r30, X+
    11c2:	fc 91       	ld	r31, X
    11c4:	13 97       	sbiw	r26, 0x03	; 3
    11c6:	80 81       	ld	r24, Z
    11c8:	88 60       	ori	r24, 0x08	; 8
    11ca:	80 83       	st	Z, r24
    11cc:	12 96       	adiw	r26, 0x02	; 2
    11ce:	ed 91       	ld	r30, X+
    11d0:	fc 91       	ld	r31, X
    11d2:	13 97       	sbiw	r26, 0x03	; 3
    11d4:	80 81       	ld	r24, Z
    11d6:	8f 7e       	andi	r24, 0xEF	; 239
    11d8:	80 83       	st	Z, r24
    11da:	c4 c0       	rjmp	.+392    	; 0x1364 <__stack+0x265>
    11dc:	ed 91       	ld	r30, X+
    11de:	fc 91       	ld	r31, X
    11e0:	11 97       	sbiw	r26, 0x01	; 1
    11e2:	80 81       	ld	r24, Z
    11e4:	81 60       	ori	r24, 0x01	; 1
    11e6:	80 83       	st	Z, r24
    11e8:	ed 91       	ld	r30, X+
    11ea:	fc 91       	ld	r31, X
    11ec:	11 97       	sbiw	r26, 0x01	; 1
    11ee:	80 81       	ld	r24, Z
    11f0:	8d 7f       	andi	r24, 0xFD	; 253
    11f2:	80 83       	st	Z, r24
    11f4:	12 96       	adiw	r26, 0x02	; 2
    11f6:	ed 91       	ld	r30, X+
    11f8:	fc 91       	ld	r31, X
    11fa:	13 97       	sbiw	r26, 0x03	; 3
    11fc:	80 81       	ld	r24, Z
    11fe:	87 7f       	andi	r24, 0xF7	; 247
    1200:	80 83       	st	Z, r24
    1202:	12 96       	adiw	r26, 0x02	; 2
    1204:	ed 91       	ld	r30, X+
    1206:	fc 91       	ld	r31, X
    1208:	13 97       	sbiw	r26, 0x03	; 3
    120a:	80 81       	ld	r24, Z
    120c:	8f 7e       	andi	r24, 0xEF	; 239
    120e:	80 83       	st	Z, r24
    1210:	a9 c0       	rjmp	.+338    	; 0x1364 <__stack+0x265>
    1212:	ed 91       	ld	r30, X+
    1214:	fc 91       	ld	r31, X
    1216:	11 97       	sbiw	r26, 0x01	; 1
    1218:	80 81       	ld	r24, Z
    121a:	8e 7f       	andi	r24, 0xFE	; 254
    121c:	80 83       	st	Z, r24
    121e:	ed 91       	ld	r30, X+
    1220:	fc 91       	ld	r31, X
    1222:	11 97       	sbiw	r26, 0x01	; 1
    1224:	80 81       	ld	r24, Z
    1226:	82 60       	ori	r24, 0x02	; 2
    1228:	80 83       	st	Z, r24
    122a:	12 96       	adiw	r26, 0x02	; 2
    122c:	ed 91       	ld	r30, X+
    122e:	fc 91       	ld	r31, X
    1230:	13 97       	sbiw	r26, 0x03	; 3
    1232:	80 81       	ld	r24, Z
    1234:	87 7f       	andi	r24, 0xF7	; 247
    1236:	80 83       	st	Z, r24
    1238:	12 96       	adiw	r26, 0x02	; 2
    123a:	ed 91       	ld	r30, X+
    123c:	fc 91       	ld	r31, X
    123e:	13 97       	sbiw	r26, 0x03	; 3
    1240:	80 81       	ld	r24, Z
    1242:	8f 7e       	andi	r24, 0xEF	; 239
    1244:	80 83       	st	Z, r24
    1246:	8e c0       	rjmp	.+284    	; 0x1364 <__stack+0x265>
    1248:	ed 91       	ld	r30, X+
    124a:	fc 91       	ld	r31, X
    124c:	11 97       	sbiw	r26, 0x01	; 1
    124e:	80 81       	ld	r24, Z
    1250:	81 60       	ori	r24, 0x01	; 1
    1252:	80 83       	st	Z, r24
    1254:	ed 91       	ld	r30, X+
    1256:	fc 91       	ld	r31, X
    1258:	11 97       	sbiw	r26, 0x01	; 1
    125a:	80 81       	ld	r24, Z
    125c:	82 60       	ori	r24, 0x02	; 2
    125e:	80 83       	st	Z, r24
    1260:	12 96       	adiw	r26, 0x02	; 2
    1262:	ed 91       	ld	r30, X+
    1264:	fc 91       	ld	r31, X
    1266:	13 97       	sbiw	r26, 0x03	; 3
    1268:	80 81       	ld	r24, Z
    126a:	87 7f       	andi	r24, 0xF7	; 247
    126c:	80 83       	st	Z, r24
    126e:	12 96       	adiw	r26, 0x02	; 2
    1270:	ed 91       	ld	r30, X+
    1272:	fc 91       	ld	r31, X
    1274:	13 97       	sbiw	r26, 0x03	; 3
    1276:	80 81       	ld	r24, Z
    1278:	8f 7e       	andi	r24, 0xEF	; 239
    127a:	80 83       	st	Z, r24
    127c:	73 c0       	rjmp	.+230    	; 0x1364 <__stack+0x265>
    127e:	ed 91       	ld	r30, X+
    1280:	fc 91       	ld	r31, X
    1282:	11 97       	sbiw	r26, 0x01	; 1
    1284:	80 81       	ld	r24, Z
    1286:	8e 7f       	andi	r24, 0xFE	; 254
    1288:	80 83       	st	Z, r24
    128a:	ed 91       	ld	r30, X+
    128c:	fc 91       	ld	r31, X
    128e:	11 97       	sbiw	r26, 0x01	; 1
    1290:	80 81       	ld	r24, Z
    1292:	8d 7f       	andi	r24, 0xFD	; 253
    1294:	80 83       	st	Z, r24
    1296:	12 96       	adiw	r26, 0x02	; 2
    1298:	ed 91       	ld	r30, X+
    129a:	fc 91       	ld	r31, X
    129c:	13 97       	sbiw	r26, 0x03	; 3
    129e:	80 81       	ld	r24, Z
    12a0:	87 7f       	andi	r24, 0xF7	; 247
    12a2:	80 83       	st	Z, r24
    12a4:	12 96       	adiw	r26, 0x02	; 2
    12a6:	ed 91       	ld	r30, X+
    12a8:	fc 91       	ld	r31, X
    12aa:	13 97       	sbiw	r26, 0x03	; 3
    12ac:	80 81       	ld	r24, Z
    12ae:	8f 7e       	andi	r24, 0xEF	; 239
    12b0:	80 83       	st	Z, r24
    12b2:	8e 81       	ldd	r24, Y+6	; 0x06
    12b4:	81 30       	cpi	r24, 0x01	; 1
    12b6:	41 f4       	brne	.+16     	; 0x12c8 <__stack+0x1c9>
    12b8:	14 96       	adiw	r26, 0x04	; 4
    12ba:	ed 91       	ld	r30, X+
    12bc:	fc 91       	ld	r31, X
    12be:	15 97       	sbiw	r26, 0x05	; 5
    12c0:	80 81       	ld	r24, Z
    12c2:	80 68       	ori	r24, 0x80	; 128
    12c4:	80 83       	st	Z, r24
    12c6:	4e c0       	rjmp	.+156    	; 0x1364 <__stack+0x265>
    12c8:	82 30       	cpi	r24, 0x02	; 2
    12ca:	41 f4       	brne	.+16     	; 0x12dc <__stack+0x1dd>
    12cc:	14 96       	adiw	r26, 0x04	; 4
    12ce:	ed 91       	ld	r30, X+
    12d0:	fc 91       	ld	r31, X
    12d2:	15 97       	sbiw	r26, 0x05	; 5
    12d4:	80 81       	ld	r24, Z
    12d6:	80 64       	ori	r24, 0x40	; 64
    12d8:	80 83       	st	Z, r24
    12da:	44 c0       	rjmp	.+136    	; 0x1364 <__stack+0x265>
    12dc:	83 30       	cpi	r24, 0x03	; 3
    12de:	09 f0       	breq	.+2      	; 0x12e2 <__stack+0x1e3>
    12e0:	20 c2       	rjmp	.+1088   	; 0x1722 <__stack+0x623>
    12e2:	14 96       	adiw	r26, 0x04	; 4
    12e4:	ed 91       	ld	r30, X+
    12e6:	fc 91       	ld	r31, X
    12e8:	15 97       	sbiw	r26, 0x05	; 5
    12ea:	80 81       	ld	r24, Z
    12ec:	80 62       	ori	r24, 0x20	; 32
    12ee:	80 83       	st	Z, r24
    12f0:	39 c0       	rjmp	.+114    	; 0x1364 <__stack+0x265>
    12f2:	ed 91       	ld	r30, X+
    12f4:	fc 91       	ld	r31, X
    12f6:	11 97       	sbiw	r26, 0x01	; 1
    12f8:	80 81       	ld	r24, Z
    12fa:	8e 7f       	andi	r24, 0xFE	; 254
    12fc:	80 83       	st	Z, r24
    12fe:	ed 91       	ld	r30, X+
    1300:	fc 91       	ld	r31, X
    1302:	11 97       	sbiw	r26, 0x01	; 1
    1304:	80 81       	ld	r24, Z
    1306:	8d 7f       	andi	r24, 0xFD	; 253
    1308:	80 83       	st	Z, r24
    130a:	12 96       	adiw	r26, 0x02	; 2
    130c:	ed 91       	ld	r30, X+
    130e:	fc 91       	ld	r31, X
    1310:	13 97       	sbiw	r26, 0x03	; 3
    1312:	80 81       	ld	r24, Z
    1314:	88 60       	ori	r24, 0x08	; 8
    1316:	80 83       	st	Z, r24
    1318:	12 96       	adiw	r26, 0x02	; 2
    131a:	ed 91       	ld	r30, X+
    131c:	fc 91       	ld	r31, X
    131e:	13 97       	sbiw	r26, 0x03	; 3
    1320:	80 81       	ld	r24, Z
    1322:	8f 7e       	andi	r24, 0xEF	; 239
    1324:	80 83       	st	Z, r24
    1326:	8e 81       	ldd	r24, Y+6	; 0x06
    1328:	81 30       	cpi	r24, 0x01	; 1
    132a:	41 f4       	brne	.+16     	; 0x133c <__stack+0x23d>
    132c:	14 96       	adiw	r26, 0x04	; 4
    132e:	ed 91       	ld	r30, X+
    1330:	fc 91       	ld	r31, X
    1332:	15 97       	sbiw	r26, 0x05	; 5
    1334:	80 81       	ld	r24, Z
    1336:	80 68       	ori	r24, 0x80	; 128
    1338:	80 83       	st	Z, r24
    133a:	14 c0       	rjmp	.+40     	; 0x1364 <__stack+0x265>
    133c:	82 30       	cpi	r24, 0x02	; 2
    133e:	41 f4       	brne	.+16     	; 0x1350 <__stack+0x251>
    1340:	14 96       	adiw	r26, 0x04	; 4
    1342:	ed 91       	ld	r30, X+
    1344:	fc 91       	ld	r31, X
    1346:	15 97       	sbiw	r26, 0x05	; 5
    1348:	80 81       	ld	r24, Z
    134a:	80 64       	ori	r24, 0x40	; 64
    134c:	80 83       	st	Z, r24
    134e:	0a c0       	rjmp	.+20     	; 0x1364 <__stack+0x265>
    1350:	83 30       	cpi	r24, 0x03	; 3
    1352:	09 f0       	breq	.+2      	; 0x1356 <__stack+0x257>
    1354:	e6 c1       	rjmp	.+972    	; 0x1722 <__stack+0x623>
    1356:	14 96       	adiw	r26, 0x04	; 4
    1358:	ed 91       	ld	r30, X+
    135a:	fc 91       	ld	r31, X
    135c:	15 97       	sbiw	r26, 0x05	; 5
    135e:	80 81       	ld	r24, Z
    1360:	80 62       	ori	r24, 0x20	; 32
    1362:	80 83       	st	Z, r24
    1364:	ed 81       	ldd	r30, Y+5	; 0x05
    1366:	4e 2f       	mov	r20, r30
    1368:	50 e0       	ldi	r21, 0x00	; 0
    136a:	49 30       	cpi	r20, 0x09	; 9
    136c:	51 05       	cpc	r21, r1
    136e:	08 f0       	brcs	.+2      	; 0x1372 <__stack+0x273>
    1370:	aa c1       	rjmp	.+852    	; 0x16c6 <__stack+0x5c7>
    1372:	fa 01       	movw	r30, r20
    1374:	e0 5a       	subi	r30, 0xA0	; 160
    1376:	ff 4f       	sbci	r31, 0xFF	; 255
    1378:	83 c4       	rjmp	.+2310   	; 0x1c80 <__tablejump2__>
    137a:	8e 81       	ldd	r24, Y+6	; 0x06
    137c:	81 30       	cpi	r24, 0x01	; 1
    137e:	69 f4       	brne	.+26     	; 0x139a <__stack+0x29b>
    1380:	ed 91       	ld	r30, X+
    1382:	fc 91       	ld	r31, X
    1384:	11 97       	sbiw	r26, 0x01	; 1
    1386:	80 81       	ld	r24, Z
    1388:	8f 7b       	andi	r24, 0xBF	; 191
    138a:	80 83       	st	Z, r24
    138c:	ed 91       	ld	r30, X+
    138e:	fc 91       	ld	r31, X
    1390:	80 81       	ld	r24, Z
    1392:	8f 77       	andi	r24, 0x7F	; 127
    1394:	80 83       	st	Z, r24
    1396:	80 e0       	ldi	r24, 0x00	; 0
    1398:	cf c1       	rjmp	.+926    	; 0x1738 <__stack+0x639>
    139a:	82 30       	cpi	r24, 0x02	; 2
    139c:	69 f4       	brne	.+26     	; 0x13b8 <__stack+0x2b9>
    139e:	ed 91       	ld	r30, X+
    13a0:	fc 91       	ld	r31, X
    13a2:	11 97       	sbiw	r26, 0x01	; 1
    13a4:	80 81       	ld	r24, Z
    13a6:	8f 7e       	andi	r24, 0xEF	; 239
    13a8:	80 83       	st	Z, r24
    13aa:	ed 91       	ld	r30, X+
    13ac:	fc 91       	ld	r31, X
    13ae:	80 81       	ld	r24, Z
    13b0:	8f 7d       	andi	r24, 0xDF	; 223
    13b2:	80 83       	st	Z, r24
    13b4:	80 e0       	ldi	r24, 0x00	; 0
    13b6:	c0 c1       	rjmp	.+896    	; 0x1738 <__stack+0x639>
    13b8:	83 30       	cpi	r24, 0x03	; 3
    13ba:	09 f0       	breq	.+2      	; 0x13be <__stack+0x2bf>
    13bc:	86 c1       	rjmp	.+780    	; 0x16ca <__stack+0x5cb>
    13be:	ed 91       	ld	r30, X+
    13c0:	fc 91       	ld	r31, X
    13c2:	11 97       	sbiw	r26, 0x01	; 1
    13c4:	80 81       	ld	r24, Z
    13c6:	8b 7f       	andi	r24, 0xFB	; 251
    13c8:	80 83       	st	Z, r24
    13ca:	ed 91       	ld	r30, X+
    13cc:	fc 91       	ld	r31, X
    13ce:	80 81       	ld	r24, Z
    13d0:	87 7f       	andi	r24, 0xF7	; 247
    13d2:	80 83       	st	Z, r24
    13d4:	80 e0       	ldi	r24, 0x00	; 0
    13d6:	b0 c1       	rjmp	.+864    	; 0x1738 <__stack+0x639>
    13d8:	8e 81       	ldd	r24, Y+6	; 0x06
    13da:	81 30       	cpi	r24, 0x01	; 1
    13dc:	69 f4       	brne	.+26     	; 0x13f8 <__stack+0x2f9>
    13de:	ed 91       	ld	r30, X+
    13e0:	fc 91       	ld	r31, X
    13e2:	11 97       	sbiw	r26, 0x01	; 1
    13e4:	80 81       	ld	r24, Z
    13e6:	80 64       	ori	r24, 0x40	; 64
    13e8:	80 83       	st	Z, r24
    13ea:	ed 91       	ld	r30, X+
    13ec:	fc 91       	ld	r31, X
    13ee:	80 81       	ld	r24, Z
    13f0:	8f 77       	andi	r24, 0x7F	; 127
    13f2:	80 83       	st	Z, r24
    13f4:	80 e0       	ldi	r24, 0x00	; 0
    13f6:	a0 c1       	rjmp	.+832    	; 0x1738 <__stack+0x639>
    13f8:	82 30       	cpi	r24, 0x02	; 2
    13fa:	69 f4       	brne	.+26     	; 0x1416 <__stack+0x317>
    13fc:	ed 91       	ld	r30, X+
    13fe:	fc 91       	ld	r31, X
    1400:	11 97       	sbiw	r26, 0x01	; 1
    1402:	80 81       	ld	r24, Z
    1404:	80 61       	ori	r24, 0x10	; 16
    1406:	80 83       	st	Z, r24
    1408:	ed 91       	ld	r30, X+
    140a:	fc 91       	ld	r31, X
    140c:	80 81       	ld	r24, Z
    140e:	8f 7d       	andi	r24, 0xDF	; 223
    1410:	80 83       	st	Z, r24
    1412:	80 e0       	ldi	r24, 0x00	; 0
    1414:	91 c1       	rjmp	.+802    	; 0x1738 <__stack+0x639>
    1416:	83 30       	cpi	r24, 0x03	; 3
    1418:	09 f0       	breq	.+2      	; 0x141c <__stack+0x31d>
    141a:	59 c1       	rjmp	.+690    	; 0x16ce <__stack+0x5cf>
    141c:	ed 91       	ld	r30, X+
    141e:	fc 91       	ld	r31, X
    1420:	11 97       	sbiw	r26, 0x01	; 1
    1422:	80 81       	ld	r24, Z
    1424:	84 60       	ori	r24, 0x04	; 4
    1426:	80 83       	st	Z, r24
    1428:	ed 91       	ld	r30, X+
    142a:	fc 91       	ld	r31, X
    142c:	80 81       	ld	r24, Z
    142e:	87 7f       	andi	r24, 0xF7	; 247
    1430:	80 83       	st	Z, r24
    1432:	80 e0       	ldi	r24, 0x00	; 0
    1434:	81 c1       	rjmp	.+770    	; 0x1738 <__stack+0x639>
    1436:	8e 81       	ldd	r24, Y+6	; 0x06
    1438:	81 30       	cpi	r24, 0x01	; 1
    143a:	69 f4       	brne	.+26     	; 0x1456 <__stack+0x357>
    143c:	ed 91       	ld	r30, X+
    143e:	fc 91       	ld	r31, X
    1440:	11 97       	sbiw	r26, 0x01	; 1
    1442:	80 81       	ld	r24, Z
    1444:	8f 7b       	andi	r24, 0xBF	; 191
    1446:	80 83       	st	Z, r24
    1448:	ed 91       	ld	r30, X+
    144a:	fc 91       	ld	r31, X
    144c:	80 81       	ld	r24, Z
    144e:	80 68       	ori	r24, 0x80	; 128
    1450:	80 83       	st	Z, r24
    1452:	80 e0       	ldi	r24, 0x00	; 0
    1454:	71 c1       	rjmp	.+738    	; 0x1738 <__stack+0x639>
    1456:	82 30       	cpi	r24, 0x02	; 2
    1458:	69 f4       	brne	.+26     	; 0x1474 <__stack+0x375>
    145a:	ed 91       	ld	r30, X+
    145c:	fc 91       	ld	r31, X
    145e:	11 97       	sbiw	r26, 0x01	; 1
    1460:	80 81       	ld	r24, Z
    1462:	8f 7e       	andi	r24, 0xEF	; 239
    1464:	80 83       	st	Z, r24
    1466:	ed 91       	ld	r30, X+
    1468:	fc 91       	ld	r31, X
    146a:	80 81       	ld	r24, Z
    146c:	80 62       	ori	r24, 0x20	; 32
    146e:	80 83       	st	Z, r24
    1470:	80 e0       	ldi	r24, 0x00	; 0
    1472:	62 c1       	rjmp	.+708    	; 0x1738 <__stack+0x639>
    1474:	83 30       	cpi	r24, 0x03	; 3
    1476:	09 f0       	breq	.+2      	; 0x147a <__stack+0x37b>
    1478:	2c c1       	rjmp	.+600    	; 0x16d2 <__stack+0x5d3>
    147a:	ed 91       	ld	r30, X+
    147c:	fc 91       	ld	r31, X
    147e:	11 97       	sbiw	r26, 0x01	; 1
    1480:	80 81       	ld	r24, Z
    1482:	8b 7f       	andi	r24, 0xFB	; 251
    1484:	80 83       	st	Z, r24
    1486:	ed 91       	ld	r30, X+
    1488:	fc 91       	ld	r31, X
    148a:	80 81       	ld	r24, Z
    148c:	88 60       	ori	r24, 0x08	; 8
    148e:	80 83       	st	Z, r24
    1490:	80 e0       	ldi	r24, 0x00	; 0
    1492:	52 c1       	rjmp	.+676    	; 0x1738 <__stack+0x639>
    1494:	8e 81       	ldd	r24, Y+6	; 0x06
    1496:	81 30       	cpi	r24, 0x01	; 1
    1498:	69 f4       	brne	.+26     	; 0x14b4 <__stack+0x3b5>
    149a:	ed 91       	ld	r30, X+
    149c:	fc 91       	ld	r31, X
    149e:	11 97       	sbiw	r26, 0x01	; 1
    14a0:	80 81       	ld	r24, Z
    14a2:	80 64       	ori	r24, 0x40	; 64
    14a4:	80 83       	st	Z, r24
    14a6:	ed 91       	ld	r30, X+
    14a8:	fc 91       	ld	r31, X
    14aa:	80 81       	ld	r24, Z
    14ac:	80 68       	ori	r24, 0x80	; 128
    14ae:	80 83       	st	Z, r24
    14b0:	80 e0       	ldi	r24, 0x00	; 0
    14b2:	42 c1       	rjmp	.+644    	; 0x1738 <__stack+0x639>
    14b4:	82 30       	cpi	r24, 0x02	; 2
    14b6:	69 f4       	brne	.+26     	; 0x14d2 <__stack+0x3d3>
    14b8:	ed 91       	ld	r30, X+
    14ba:	fc 91       	ld	r31, X
    14bc:	11 97       	sbiw	r26, 0x01	; 1
    14be:	80 81       	ld	r24, Z
    14c0:	80 61       	ori	r24, 0x10	; 16
    14c2:	80 83       	st	Z, r24
    14c4:	ed 91       	ld	r30, X+
    14c6:	fc 91       	ld	r31, X
    14c8:	80 81       	ld	r24, Z
    14ca:	80 62       	ori	r24, 0x20	; 32
    14cc:	80 83       	st	Z, r24
    14ce:	80 e0       	ldi	r24, 0x00	; 0
    14d0:	33 c1       	rjmp	.+614    	; 0x1738 <__stack+0x639>
    14d2:	83 30       	cpi	r24, 0x03	; 3
    14d4:	09 f0       	breq	.+2      	; 0x14d8 <__stack+0x3d9>
    14d6:	ff c0       	rjmp	.+510    	; 0x16d6 <__stack+0x5d7>
    14d8:	ed 91       	ld	r30, X+
    14da:	fc 91       	ld	r31, X
    14dc:	11 97       	sbiw	r26, 0x01	; 1
    14de:	80 81       	ld	r24, Z
    14e0:	84 60       	ori	r24, 0x04	; 4
    14e2:	80 83       	st	Z, r24
    14e4:	ed 91       	ld	r30, X+
    14e6:	fc 91       	ld	r31, X
    14e8:	80 81       	ld	r24, Z
    14ea:	88 60       	ori	r24, 0x08	; 8
    14ec:	80 83       	st	Z, r24
    14ee:	80 e0       	ldi	r24, 0x00	; 0
    14f0:	23 c1       	rjmp	.+582    	; 0x1738 <__stack+0x639>
    14f2:	8e 81       	ldd	r24, Y+6	; 0x06
    14f4:	81 30       	cpi	r24, 0x01	; 1
    14f6:	69 f4       	brne	.+26     	; 0x1512 <__stack+0x413>
    14f8:	ed 91       	ld	r30, X+
    14fa:	fc 91       	ld	r31, X
    14fc:	11 97       	sbiw	r26, 0x01	; 1
    14fe:	80 81       	ld	r24, Z
    1500:	80 64       	ori	r24, 0x40	; 64
    1502:	80 83       	st	Z, r24
    1504:	ed 91       	ld	r30, X+
    1506:	fc 91       	ld	r31, X
    1508:	80 81       	ld	r24, Z
    150a:	8f 77       	andi	r24, 0x7F	; 127
    150c:	80 83       	st	Z, r24
    150e:	80 e0       	ldi	r24, 0x00	; 0
    1510:	13 c1       	rjmp	.+550    	; 0x1738 <__stack+0x639>
    1512:	82 30       	cpi	r24, 0x02	; 2
    1514:	69 f4       	brne	.+26     	; 0x1530 <__stack+0x431>
    1516:	ed 91       	ld	r30, X+
    1518:	fc 91       	ld	r31, X
    151a:	11 97       	sbiw	r26, 0x01	; 1
    151c:	80 81       	ld	r24, Z
    151e:	80 61       	ori	r24, 0x10	; 16
    1520:	80 83       	st	Z, r24
    1522:	ed 91       	ld	r30, X+
    1524:	fc 91       	ld	r31, X
    1526:	80 81       	ld	r24, Z
    1528:	8f 7d       	andi	r24, 0xDF	; 223
    152a:	80 83       	st	Z, r24
    152c:	80 e0       	ldi	r24, 0x00	; 0
    152e:	04 c1       	rjmp	.+520    	; 0x1738 <__stack+0x639>
    1530:	83 30       	cpi	r24, 0x03	; 3
    1532:	09 f0       	breq	.+2      	; 0x1536 <__stack+0x437>
    1534:	d2 c0       	rjmp	.+420    	; 0x16da <__stack+0x5db>
    1536:	ed 91       	ld	r30, X+
    1538:	fc 91       	ld	r31, X
    153a:	11 97       	sbiw	r26, 0x01	; 1
    153c:	80 81       	ld	r24, Z
    153e:	84 60       	ori	r24, 0x04	; 4
    1540:	80 83       	st	Z, r24
    1542:	ed 91       	ld	r30, X+
    1544:	fc 91       	ld	r31, X
    1546:	80 81       	ld	r24, Z
    1548:	87 7f       	andi	r24, 0xF7	; 247
    154a:	80 83       	st	Z, r24
    154c:	80 e0       	ldi	r24, 0x00	; 0
    154e:	f4 c0       	rjmp	.+488    	; 0x1738 <__stack+0x639>
    1550:	8e 81       	ldd	r24, Y+6	; 0x06
    1552:	81 30       	cpi	r24, 0x01	; 1
    1554:	69 f4       	brne	.+26     	; 0x1570 <__stack+0x471>
    1556:	ed 91       	ld	r30, X+
    1558:	fc 91       	ld	r31, X
    155a:	11 97       	sbiw	r26, 0x01	; 1
    155c:	80 81       	ld	r24, Z
    155e:	80 64       	ori	r24, 0x40	; 64
    1560:	80 83       	st	Z, r24
    1562:	ed 91       	ld	r30, X+
    1564:	fc 91       	ld	r31, X
    1566:	80 81       	ld	r24, Z
    1568:	8f 77       	andi	r24, 0x7F	; 127
    156a:	80 83       	st	Z, r24
    156c:	80 e0       	ldi	r24, 0x00	; 0
    156e:	e4 c0       	rjmp	.+456    	; 0x1738 <__stack+0x639>
    1570:	82 30       	cpi	r24, 0x02	; 2
    1572:	69 f4       	brne	.+26     	; 0x158e <__stack+0x48f>
    1574:	ed 91       	ld	r30, X+
    1576:	fc 91       	ld	r31, X
    1578:	11 97       	sbiw	r26, 0x01	; 1
    157a:	80 81       	ld	r24, Z
    157c:	80 61       	ori	r24, 0x10	; 16
    157e:	80 83       	st	Z, r24
    1580:	ed 91       	ld	r30, X+
    1582:	fc 91       	ld	r31, X
    1584:	80 81       	ld	r24, Z
    1586:	8f 7d       	andi	r24, 0xDF	; 223
    1588:	80 83       	st	Z, r24
    158a:	80 e0       	ldi	r24, 0x00	; 0
    158c:	d5 c0       	rjmp	.+426    	; 0x1738 <__stack+0x639>
    158e:	83 30       	cpi	r24, 0x03	; 3
    1590:	09 f0       	breq	.+2      	; 0x1594 <__stack+0x495>
    1592:	a5 c0       	rjmp	.+330    	; 0x16de <__stack+0x5df>
    1594:	ed 91       	ld	r30, X+
    1596:	fc 91       	ld	r31, X
    1598:	11 97       	sbiw	r26, 0x01	; 1
    159a:	80 81       	ld	r24, Z
    159c:	84 60       	ori	r24, 0x04	; 4
    159e:	80 83       	st	Z, r24
    15a0:	ed 91       	ld	r30, X+
    15a2:	fc 91       	ld	r31, X
    15a4:	80 81       	ld	r24, Z
    15a6:	87 7f       	andi	r24, 0xF7	; 247
    15a8:	80 83       	st	Z, r24
    15aa:	80 e0       	ldi	r24, 0x00	; 0
    15ac:	c5 c0       	rjmp	.+394    	; 0x1738 <__stack+0x639>
    15ae:	8e 81       	ldd	r24, Y+6	; 0x06
    15b0:	81 30       	cpi	r24, 0x01	; 1
    15b2:	69 f4       	brne	.+26     	; 0x15ce <__stack+0x4cf>
    15b4:	ed 91       	ld	r30, X+
    15b6:	fc 91       	ld	r31, X
    15b8:	11 97       	sbiw	r26, 0x01	; 1
    15ba:	80 81       	ld	r24, Z
    15bc:	80 64       	ori	r24, 0x40	; 64
    15be:	80 83       	st	Z, r24
    15c0:	ed 91       	ld	r30, X+
    15c2:	fc 91       	ld	r31, X
    15c4:	80 81       	ld	r24, Z
    15c6:	8f 77       	andi	r24, 0x7F	; 127
    15c8:	80 83       	st	Z, r24
    15ca:	80 e0       	ldi	r24, 0x00	; 0
    15cc:	b5 c0       	rjmp	.+362    	; 0x1738 <__stack+0x639>
    15ce:	82 30       	cpi	r24, 0x02	; 2
    15d0:	69 f4       	brne	.+26     	; 0x15ec <__stack+0x4ed>
    15d2:	ed 91       	ld	r30, X+
    15d4:	fc 91       	ld	r31, X
    15d6:	11 97       	sbiw	r26, 0x01	; 1
    15d8:	80 81       	ld	r24, Z
    15da:	80 61       	ori	r24, 0x10	; 16
    15dc:	80 83       	st	Z, r24
    15de:	ed 91       	ld	r30, X+
    15e0:	fc 91       	ld	r31, X
    15e2:	80 81       	ld	r24, Z
    15e4:	8f 7d       	andi	r24, 0xDF	; 223
    15e6:	80 83       	st	Z, r24
    15e8:	80 e0       	ldi	r24, 0x00	; 0
    15ea:	a6 c0       	rjmp	.+332    	; 0x1738 <__stack+0x639>
    15ec:	83 30       	cpi	r24, 0x03	; 3
    15ee:	09 f0       	breq	.+2      	; 0x15f2 <__stack+0x4f3>
    15f0:	78 c0       	rjmp	.+240    	; 0x16e2 <__stack+0x5e3>
    15f2:	ed 91       	ld	r30, X+
    15f4:	fc 91       	ld	r31, X
    15f6:	11 97       	sbiw	r26, 0x01	; 1
    15f8:	80 81       	ld	r24, Z
    15fa:	84 60       	ori	r24, 0x04	; 4
    15fc:	80 83       	st	Z, r24
    15fe:	ed 91       	ld	r30, X+
    1600:	fc 91       	ld	r31, X
    1602:	80 81       	ld	r24, Z
    1604:	87 7f       	andi	r24, 0xF7	; 247
    1606:	80 83       	st	Z, r24
    1608:	80 e0       	ldi	r24, 0x00	; 0
    160a:	96 c0       	rjmp	.+300    	; 0x1738 <__stack+0x639>
    160c:	8e 81       	ldd	r24, Y+6	; 0x06
    160e:	81 30       	cpi	r24, 0x01	; 1
    1610:	69 f4       	brne	.+26     	; 0x162c <__stack+0x52d>
    1612:	ed 91       	ld	r30, X+
    1614:	fc 91       	ld	r31, X
    1616:	11 97       	sbiw	r26, 0x01	; 1
    1618:	80 81       	ld	r24, Z
    161a:	8f 7b       	andi	r24, 0xBF	; 191
    161c:	80 83       	st	Z, r24
    161e:	ed 91       	ld	r30, X+
    1620:	fc 91       	ld	r31, X
    1622:	80 81       	ld	r24, Z
    1624:	80 68       	ori	r24, 0x80	; 128
    1626:	80 83       	st	Z, r24
    1628:	80 e0       	ldi	r24, 0x00	; 0
    162a:	86 c0       	rjmp	.+268    	; 0x1738 <__stack+0x639>
    162c:	82 30       	cpi	r24, 0x02	; 2
    162e:	69 f4       	brne	.+26     	; 0x164a <__stack+0x54b>
    1630:	ed 91       	ld	r30, X+
    1632:	fc 91       	ld	r31, X
    1634:	11 97       	sbiw	r26, 0x01	; 1
    1636:	80 81       	ld	r24, Z
    1638:	8f 7e       	andi	r24, 0xEF	; 239
    163a:	80 83       	st	Z, r24
    163c:	ed 91       	ld	r30, X+
    163e:	fc 91       	ld	r31, X
    1640:	80 81       	ld	r24, Z
    1642:	80 62       	ori	r24, 0x20	; 32
    1644:	80 83       	st	Z, r24
    1646:	80 e0       	ldi	r24, 0x00	; 0
    1648:	77 c0       	rjmp	.+238    	; 0x1738 <__stack+0x639>
    164a:	83 30       	cpi	r24, 0x03	; 3
    164c:	09 f0       	breq	.+2      	; 0x1650 <__stack+0x551>
    164e:	4b c0       	rjmp	.+150    	; 0x16e6 <__stack+0x5e7>
    1650:	ed 91       	ld	r30, X+
    1652:	fc 91       	ld	r31, X
    1654:	11 97       	sbiw	r26, 0x01	; 1
    1656:	80 81       	ld	r24, Z
    1658:	8b 7f       	andi	r24, 0xFB	; 251
    165a:	80 83       	st	Z, r24
    165c:	ed 91       	ld	r30, X+
    165e:	fc 91       	ld	r31, X
    1660:	80 81       	ld	r24, Z
    1662:	88 60       	ori	r24, 0x08	; 8
    1664:	80 83       	st	Z, r24
    1666:	80 e0       	ldi	r24, 0x00	; 0
    1668:	67 c0       	rjmp	.+206    	; 0x1738 <__stack+0x639>
    166a:	8e 81       	ldd	r24, Y+6	; 0x06
    166c:	81 30       	cpi	r24, 0x01	; 1
    166e:	69 f4       	brne	.+26     	; 0x168a <__stack+0x58b>
    1670:	ed 91       	ld	r30, X+
    1672:	fc 91       	ld	r31, X
    1674:	11 97       	sbiw	r26, 0x01	; 1
    1676:	80 81       	ld	r24, Z
    1678:	80 64       	ori	r24, 0x40	; 64
    167a:	80 83       	st	Z, r24
    167c:	ed 91       	ld	r30, X+
    167e:	fc 91       	ld	r31, X
    1680:	80 81       	ld	r24, Z
    1682:	80 68       	ori	r24, 0x80	; 128
    1684:	80 83       	st	Z, r24
    1686:	80 e0       	ldi	r24, 0x00	; 0
    1688:	57 c0       	rjmp	.+174    	; 0x1738 <__stack+0x639>
    168a:	82 30       	cpi	r24, 0x02	; 2
    168c:	69 f4       	brne	.+26     	; 0x16a8 <__stack+0x5a9>
    168e:	ed 91       	ld	r30, X+
    1690:	fc 91       	ld	r31, X
    1692:	11 97       	sbiw	r26, 0x01	; 1
    1694:	80 81       	ld	r24, Z
    1696:	80 61       	ori	r24, 0x10	; 16
    1698:	80 83       	st	Z, r24
    169a:	ed 91       	ld	r30, X+
    169c:	fc 91       	ld	r31, X
    169e:	80 81       	ld	r24, Z
    16a0:	80 62       	ori	r24, 0x20	; 32
    16a2:	80 83       	st	Z, r24
    16a4:	80 e0       	ldi	r24, 0x00	; 0
    16a6:	48 c0       	rjmp	.+144    	; 0x1738 <__stack+0x639>
    16a8:	83 30       	cpi	r24, 0x03	; 3
    16aa:	f9 f4       	brne	.+62     	; 0x16ea <__stack+0x5eb>
    16ac:	ed 91       	ld	r30, X+
    16ae:	fc 91       	ld	r31, X
    16b0:	11 97       	sbiw	r26, 0x01	; 1
    16b2:	80 81       	ld	r24, Z
    16b4:	84 60       	ori	r24, 0x04	; 4
    16b6:	80 83       	st	Z, r24
    16b8:	ed 91       	ld	r30, X+
    16ba:	fc 91       	ld	r31, X
    16bc:	80 81       	ld	r24, Z
    16be:	88 60       	ori	r24, 0x08	; 8
    16c0:	80 83       	st	Z, r24
    16c2:	80 e0       	ldi	r24, 0x00	; 0
    16c4:	39 c0       	rjmp	.+114    	; 0x1738 <__stack+0x639>
    16c6:	80 e0       	ldi	r24, 0x00	; 0
    16c8:	37 c0       	rjmp	.+110    	; 0x1738 <__stack+0x639>
    16ca:	80 e0       	ldi	r24, 0x00	; 0
    16cc:	35 c0       	rjmp	.+106    	; 0x1738 <__stack+0x639>
    16ce:	80 e0       	ldi	r24, 0x00	; 0
    16d0:	33 c0       	rjmp	.+102    	; 0x1738 <__stack+0x639>
    16d2:	80 e0       	ldi	r24, 0x00	; 0
    16d4:	31 c0       	rjmp	.+98     	; 0x1738 <__stack+0x639>
    16d6:	80 e0       	ldi	r24, 0x00	; 0
    16d8:	2f c0       	rjmp	.+94     	; 0x1738 <__stack+0x639>
    16da:	80 e0       	ldi	r24, 0x00	; 0
    16dc:	2d c0       	rjmp	.+90     	; 0x1738 <__stack+0x639>
    16de:	80 e0       	ldi	r24, 0x00	; 0
    16e0:	2b c0       	rjmp	.+86     	; 0x1738 <__stack+0x639>
    16e2:	80 e0       	ldi	r24, 0x00	; 0
    16e4:	29 c0       	rjmp	.+82     	; 0x1738 <__stack+0x639>
    16e6:	80 e0       	ldi	r24, 0x00	; 0
    16e8:	27 c0       	rjmp	.+78     	; 0x1738 <__stack+0x639>
    16ea:	80 e0       	ldi	r24, 0x00	; 0
    16ec:	25 c0       	rjmp	.+74     	; 0x1738 <__stack+0x639>
    16ee:	80 e0       	ldi	r24, 0x00	; 0
    16f0:	23 c0       	rjmp	.+70     	; 0x1738 <__stack+0x639>
    16f2:	a3 e4       	ldi	r26, 0x43	; 67
    16f4:	b1 e0       	ldi	r27, 0x01	; 1
    16f6:	02 c0       	rjmp	.+4      	; 0x16fc <__stack+0x5fd>
    16f8:	a9 e5       	ldi	r26, 0x59	; 89
    16fa:	b1 e0       	ldi	r27, 0x01	; 1
    16fc:	8a 81       	ldd	r24, Y+2	; 0x02
    16fe:	83 30       	cpi	r24, 0x03	; 3
    1700:	09 f4       	brne	.+2      	; 0x1704 <__stack+0x605>
    1702:	9d cb       	rjmp	.-2246   	; 0xe3e <TIM16_Init+0x70>
    1704:	38 f4       	brcc	.+14     	; 0x1714 <__stack+0x615>
    1706:	88 23       	and	r24, r24
    1708:	09 f4       	brne	.+2      	; 0x170c <__stack+0x60d>
    170a:	6d cb       	rjmp	.-2342   	; 0xde6 <TIM16_Init+0x18>
    170c:	81 30       	cpi	r24, 0x01	; 1
    170e:	09 f4       	brne	.+2      	; 0x1712 <__stack+0x613>
    1710:	80 cb       	rjmp	.-2304   	; 0xe12 <TIM16_Init+0x44>
    1712:	d6 cb       	rjmp	.-2132   	; 0xec0 <TIM16_Init+0xf2>
    1714:	85 30       	cpi	r24, 0x05	; 5
    1716:	09 f4       	brne	.+2      	; 0x171a <__stack+0x61b>
    1718:	a8 cb       	rjmp	.-2224   	; 0xe6a <TIM16_Init+0x9c>
    171a:	86 30       	cpi	r24, 0x06	; 6
    171c:	09 f4       	brne	.+2      	; 0x1720 <__stack+0x621>
    171e:	bb cb       	rjmp	.-2186   	; 0xe96 <TIM16_Init+0xc8>
    1720:	cf cb       	rjmp	.-2146   	; 0xec0 <TIM16_Init+0xf2>
    1722:	ed 81       	ldd	r30, Y+5	; 0x05
    1724:	4e 2f       	mov	r20, r30
    1726:	50 e0       	ldi	r21, 0x00	; 0
    1728:	fa 01       	movw	r30, r20
    172a:	31 97       	sbiw	r30, 0x01	; 1
    172c:	e8 30       	cpi	r30, 0x08	; 8
    172e:	f1 05       	cpc	r31, r1
    1730:	f0 f6       	brcc	.-68     	; 0x16ee <__stack+0x5ef>
    1732:	e7 59       	subi	r30, 0x97	; 151
    1734:	ff 4f       	sbci	r31, 0xFF	; 255
    1736:	a4 c2       	rjmp	.+1352   	; 0x1c80 <__tablejump2__>
    1738:	df 91       	pop	r29
    173a:	cf 91       	pop	r28
    173c:	08 95       	ret

0000173e <TIM_Init>:
    173e:	fc 01       	movw	r30, r24
    1740:	90 81       	ld	r25, Z
    1742:	9d 7f       	andi	r25, 0xFD	; 253
    1744:	19 f4       	brne	.+6      	; 0x174c <TIM_Init+0xe>
    1746:	cf 01       	movw	r24, r30
    1748:	0d d9       	rcall	.-3558   	; 0x964 <TIM8_Init>
    174a:	04 c0       	rjmp	.+8      	; 0x1754 <TIM_Init+0x16>
    174c:	91 30       	cpi	r25, 0x01	; 1
    174e:	11 f4       	brne	.+4      	; 0x1754 <TIM_Init+0x16>
    1750:	cf 01       	movw	r24, r30
    1752:	3d db       	rcall	.-2438   	; 0xdce <TIM16_Init>
    1754:	80 e0       	ldi	r24, 0x00	; 0
    1756:	08 95       	ret

00001758 <TIM_Start>:
    1758:	cf 93       	push	r28
    175a:	df 93       	push	r29
    175c:	dc 01       	movw	r26, r24
    175e:	8c 91       	ld	r24, X
    1760:	81 11       	cpse	r24, r1
    1762:	a0 c0       	rjmp	.+320    	; 0x18a4 <TIM_Start+0x14c>
    1764:	12 96       	adiw	r26, 0x02	; 2
    1766:	ec 91       	ld	r30, X
    1768:	12 97       	sbiw	r26, 0x02	; 2
    176a:	4e 2f       	mov	r20, r30
    176c:	50 e0       	ldi	r21, 0x00	; 0
    176e:	47 30       	cpi	r20, 0x07	; 7
    1770:	51 05       	cpc	r21, r1
    1772:	08 f0       	brcs	.+2      	; 0x1776 <TIM_Start+0x1e>
    1774:	88 c0       	rjmp	.+272    	; 0x1886 <TIM_Start+0x12e>
    1776:	fa 01       	movw	r30, r20
    1778:	ef 58       	subi	r30, 0x8F	; 143
    177a:	ff 4f       	sbci	r31, 0xFF	; 255
    177c:	81 c2       	rjmp	.+1282   	; 0x1c80 <__tablejump2__>
    177e:	ef e6       	ldi	r30, 0x6F	; 111
    1780:	f1 e0       	ldi	r31, 0x01	; 1
    1782:	c0 81       	ld	r28, Z
    1784:	d1 81       	ldd	r29, Z+1	; 0x01
    1786:	88 81       	ld	r24, Y
    1788:	8b 7f       	andi	r24, 0xFB	; 251
    178a:	88 83       	st	Y, r24
    178c:	c0 81       	ld	r28, Z
    178e:	d1 81       	ldd	r29, Z+1	; 0x01
    1790:	88 81       	ld	r24, Y
    1792:	8d 7f       	andi	r24, 0xFD	; 253
    1794:	88 83       	st	Y, r24
    1796:	01 90       	ld	r0, Z+
    1798:	f0 81       	ld	r31, Z
    179a:	e0 2d       	mov	r30, r0
    179c:	80 81       	ld	r24, Z
    179e:	81 60       	ori	r24, 0x01	; 1
    17a0:	80 83       	st	Z, r24
    17a2:	71 c0       	rjmp	.+226    	; 0x1886 <TIM_Start+0x12e>
    17a4:	ef e6       	ldi	r30, 0x6F	; 111
    17a6:	f1 e0       	ldi	r31, 0x01	; 1
    17a8:	c0 81       	ld	r28, Z
    17aa:	d1 81       	ldd	r29, Z+1	; 0x01
    17ac:	88 81       	ld	r24, Y
    17ae:	8b 7f       	andi	r24, 0xFB	; 251
    17b0:	88 83       	st	Y, r24
    17b2:	c0 81       	ld	r28, Z
    17b4:	d1 81       	ldd	r29, Z+1	; 0x01
    17b6:	88 81       	ld	r24, Y
    17b8:	82 60       	ori	r24, 0x02	; 2
    17ba:	88 83       	st	Y, r24
    17bc:	01 90       	ld	r0, Z+
    17be:	f0 81       	ld	r31, Z
    17c0:	e0 2d       	mov	r30, r0
    17c2:	80 81       	ld	r24, Z
    17c4:	8e 7f       	andi	r24, 0xFE	; 254
    17c6:	80 83       	st	Z, r24
    17c8:	5e c0       	rjmp	.+188    	; 0x1886 <TIM_Start+0x12e>
    17ca:	ef e6       	ldi	r30, 0x6F	; 111
    17cc:	f1 e0       	ldi	r31, 0x01	; 1
    17ce:	c0 81       	ld	r28, Z
    17d0:	d1 81       	ldd	r29, Z+1	; 0x01
    17d2:	88 81       	ld	r24, Y
    17d4:	8b 7f       	andi	r24, 0xFB	; 251
    17d6:	88 83       	st	Y, r24
    17d8:	c0 81       	ld	r28, Z
    17da:	d1 81       	ldd	r29, Z+1	; 0x01
    17dc:	88 81       	ld	r24, Y
    17de:	82 60       	ori	r24, 0x02	; 2
    17e0:	88 83       	st	Y, r24
    17e2:	01 90       	ld	r0, Z+
    17e4:	f0 81       	ld	r31, Z
    17e6:	e0 2d       	mov	r30, r0
    17e8:	80 81       	ld	r24, Z
    17ea:	81 60       	ori	r24, 0x01	; 1
    17ec:	80 83       	st	Z, r24
    17ee:	4b c0       	rjmp	.+150    	; 0x1886 <TIM_Start+0x12e>
    17f0:	ef e6       	ldi	r30, 0x6F	; 111
    17f2:	f1 e0       	ldi	r31, 0x01	; 1
    17f4:	c0 81       	ld	r28, Z
    17f6:	d1 81       	ldd	r29, Z+1	; 0x01
    17f8:	88 81       	ld	r24, Y
    17fa:	84 60       	ori	r24, 0x04	; 4
    17fc:	88 83       	st	Y, r24
    17fe:	c0 81       	ld	r28, Z
    1800:	d1 81       	ldd	r29, Z+1	; 0x01
    1802:	88 81       	ld	r24, Y
    1804:	8d 7f       	andi	r24, 0xFD	; 253
    1806:	88 83       	st	Y, r24
    1808:	01 90       	ld	r0, Z+
    180a:	f0 81       	ld	r31, Z
    180c:	e0 2d       	mov	r30, r0
    180e:	80 81       	ld	r24, Z
    1810:	8e 7f       	andi	r24, 0xFE	; 254
    1812:	80 83       	st	Z, r24
    1814:	38 c0       	rjmp	.+112    	; 0x1886 <TIM_Start+0x12e>
    1816:	ef e6       	ldi	r30, 0x6F	; 111
    1818:	f1 e0       	ldi	r31, 0x01	; 1
    181a:	c0 81       	ld	r28, Z
    181c:	d1 81       	ldd	r29, Z+1	; 0x01
    181e:	88 81       	ld	r24, Y
    1820:	84 60       	ori	r24, 0x04	; 4
    1822:	88 83       	st	Y, r24
    1824:	c0 81       	ld	r28, Z
    1826:	d1 81       	ldd	r29, Z+1	; 0x01
    1828:	88 81       	ld	r24, Y
    182a:	8d 7f       	andi	r24, 0xFD	; 253
    182c:	88 83       	st	Y, r24
    182e:	01 90       	ld	r0, Z+
    1830:	f0 81       	ld	r31, Z
    1832:	e0 2d       	mov	r30, r0
    1834:	80 81       	ld	r24, Z
    1836:	81 60       	ori	r24, 0x01	; 1
    1838:	80 83       	st	Z, r24
    183a:	25 c0       	rjmp	.+74     	; 0x1886 <TIM_Start+0x12e>
    183c:	ef e6       	ldi	r30, 0x6F	; 111
    183e:	f1 e0       	ldi	r31, 0x01	; 1
    1840:	c0 81       	ld	r28, Z
    1842:	d1 81       	ldd	r29, Z+1	; 0x01
    1844:	88 81       	ld	r24, Y
    1846:	84 60       	ori	r24, 0x04	; 4
    1848:	88 83       	st	Y, r24
    184a:	c0 81       	ld	r28, Z
    184c:	d1 81       	ldd	r29, Z+1	; 0x01
    184e:	88 81       	ld	r24, Y
    1850:	82 60       	ori	r24, 0x02	; 2
    1852:	88 83       	st	Y, r24
    1854:	01 90       	ld	r0, Z+
    1856:	f0 81       	ld	r31, Z
    1858:	e0 2d       	mov	r30, r0
    185a:	80 81       	ld	r24, Z
    185c:	8e 7f       	andi	r24, 0xFE	; 254
    185e:	80 83       	st	Z, r24
    1860:	12 c0       	rjmp	.+36     	; 0x1886 <TIM_Start+0x12e>
    1862:	ef e6       	ldi	r30, 0x6F	; 111
    1864:	f1 e0       	ldi	r31, 0x01	; 1
    1866:	c0 81       	ld	r28, Z
    1868:	d1 81       	ldd	r29, Z+1	; 0x01
    186a:	88 81       	ld	r24, Y
    186c:	84 60       	ori	r24, 0x04	; 4
    186e:	88 83       	st	Y, r24
    1870:	c0 81       	ld	r28, Z
    1872:	d1 81       	ldd	r29, Z+1	; 0x01
    1874:	88 81       	ld	r24, Y
    1876:	82 60       	ori	r24, 0x02	; 2
    1878:	88 83       	st	Y, r24
    187a:	01 90       	ld	r0, Z+
    187c:	f0 81       	ld	r31, Z
    187e:	e0 2d       	mov	r30, r0
    1880:	80 81       	ld	r24, Z
    1882:	81 60       	ori	r24, 0x01	; 1
    1884:	80 83       	st	Z, r24
    1886:	ef e6       	ldi	r30, 0x6F	; 111
    1888:	f1 e0       	ldi	r31, 0x01	; 1
    188a:	c2 81       	ldd	r28, Z+2	; 0x02
    188c:	d3 81       	ldd	r29, Z+3	; 0x03
    188e:	17 96       	adiw	r26, 0x07	; 7
    1890:	8c 91       	ld	r24, X
    1892:	17 97       	sbiw	r26, 0x07	; 7
    1894:	88 83       	st	Y, r24
    1896:	04 80       	ldd	r0, Z+4	; 0x04
    1898:	f5 81       	ldd	r31, Z+5	; 0x05
    189a:	e0 2d       	mov	r30, r0
    189c:	19 96       	adiw	r26, 0x09	; 9
    189e:	8c 91       	ld	r24, X
    18a0:	80 83       	st	Z, r24
    18a2:	2b c1       	rjmp	.+598    	; 0x1afa <TIM_Start+0x3a2>
    18a4:	82 30       	cpi	r24, 0x02	; 2
    18a6:	09 f0       	breq	.+2      	; 0x18aa <TIM_Start+0x152>
    18a8:	7e c0       	rjmp	.+252    	; 0x19a6 <TIM_Start+0x24e>
    18aa:	12 96       	adiw	r26, 0x02	; 2
    18ac:	8c 91       	ld	r24, X
    18ae:	12 97       	sbiw	r26, 0x02	; 2
    18b0:	83 30       	cpi	r24, 0x03	; 3
    18b2:	91 f1       	breq	.+100    	; 0x1918 <TIM_Start+0x1c0>
    18b4:	28 f4       	brcc	.+10     	; 0x18c0 <TIM_Start+0x168>
    18b6:	88 23       	and	r24, r24
    18b8:	49 f0       	breq	.+18     	; 0x18cc <TIM_Start+0x174>
    18ba:	81 30       	cpi	r24, 0x01	; 1
    18bc:	d1 f0       	breq	.+52     	; 0x18f2 <TIM_Start+0x19a>
    18be:	64 c0       	rjmp	.+200    	; 0x1988 <TIM_Start+0x230>
    18c0:	85 30       	cpi	r24, 0x05	; 5
    18c2:	e9 f1       	breq	.+122    	; 0x193e <TIM_Start+0x1e6>
    18c4:	86 30       	cpi	r24, 0x06	; 6
    18c6:	09 f4       	brne	.+2      	; 0x18ca <TIM_Start+0x172>
    18c8:	4d c0       	rjmp	.+154    	; 0x1964 <TIM_Start+0x20c>
    18ca:	5e c0       	rjmp	.+188    	; 0x1988 <TIM_Start+0x230>
    18cc:	ef e6       	ldi	r30, 0x6F	; 111
    18ce:	f1 e0       	ldi	r31, 0x01	; 1
    18d0:	c0 85       	ldd	r28, Z+8	; 0x08
    18d2:	d1 85       	ldd	r29, Z+9	; 0x09
    18d4:	88 81       	ld	r24, Y
    18d6:	8b 7f       	andi	r24, 0xFB	; 251
    18d8:	88 83       	st	Y, r24
    18da:	c0 85       	ldd	r28, Z+8	; 0x08
    18dc:	d1 85       	ldd	r29, Z+9	; 0x09
    18de:	88 81       	ld	r24, Y
    18e0:	8d 7f       	andi	r24, 0xFD	; 253
    18e2:	88 83       	st	Y, r24
    18e4:	00 84       	ldd	r0, Z+8	; 0x08
    18e6:	f1 85       	ldd	r31, Z+9	; 0x09
    18e8:	e0 2d       	mov	r30, r0
    18ea:	80 81       	ld	r24, Z
    18ec:	81 60       	ori	r24, 0x01	; 1
    18ee:	80 83       	st	Z, r24
    18f0:	4b c0       	rjmp	.+150    	; 0x1988 <TIM_Start+0x230>
    18f2:	ef e6       	ldi	r30, 0x6F	; 111
    18f4:	f1 e0       	ldi	r31, 0x01	; 1
    18f6:	c0 85       	ldd	r28, Z+8	; 0x08
    18f8:	d1 85       	ldd	r29, Z+9	; 0x09
    18fa:	88 81       	ld	r24, Y
    18fc:	8b 7f       	andi	r24, 0xFB	; 251
    18fe:	88 83       	st	Y, r24
    1900:	c0 85       	ldd	r28, Z+8	; 0x08
    1902:	d1 85       	ldd	r29, Z+9	; 0x09
    1904:	88 81       	ld	r24, Y
    1906:	82 60       	ori	r24, 0x02	; 2
    1908:	88 83       	st	Y, r24
    190a:	00 84       	ldd	r0, Z+8	; 0x08
    190c:	f1 85       	ldd	r31, Z+9	; 0x09
    190e:	e0 2d       	mov	r30, r0
    1910:	80 81       	ld	r24, Z
    1912:	8e 7f       	andi	r24, 0xFE	; 254
    1914:	80 83       	st	Z, r24
    1916:	38 c0       	rjmp	.+112    	; 0x1988 <TIM_Start+0x230>
    1918:	ef e6       	ldi	r30, 0x6F	; 111
    191a:	f1 e0       	ldi	r31, 0x01	; 1
    191c:	c0 85       	ldd	r28, Z+8	; 0x08
    191e:	d1 85       	ldd	r29, Z+9	; 0x09
    1920:	88 81       	ld	r24, Y
    1922:	8b 7f       	andi	r24, 0xFB	; 251
    1924:	88 83       	st	Y, r24
    1926:	c0 85       	ldd	r28, Z+8	; 0x08
    1928:	d1 85       	ldd	r29, Z+9	; 0x09
    192a:	88 81       	ld	r24, Y
    192c:	82 60       	ori	r24, 0x02	; 2
    192e:	88 83       	st	Y, r24
    1930:	00 84       	ldd	r0, Z+8	; 0x08
    1932:	f1 85       	ldd	r31, Z+9	; 0x09
    1934:	e0 2d       	mov	r30, r0
    1936:	80 81       	ld	r24, Z
    1938:	81 60       	ori	r24, 0x01	; 1
    193a:	80 83       	st	Z, r24
    193c:	25 c0       	rjmp	.+74     	; 0x1988 <TIM_Start+0x230>
    193e:	ef e6       	ldi	r30, 0x6F	; 111
    1940:	f1 e0       	ldi	r31, 0x01	; 1
    1942:	c0 85       	ldd	r28, Z+8	; 0x08
    1944:	d1 85       	ldd	r29, Z+9	; 0x09
    1946:	88 81       	ld	r24, Y
    1948:	84 60       	ori	r24, 0x04	; 4
    194a:	88 83       	st	Y, r24
    194c:	c0 85       	ldd	r28, Z+8	; 0x08
    194e:	d1 85       	ldd	r29, Z+9	; 0x09
    1950:	88 81       	ld	r24, Y
    1952:	8d 7f       	andi	r24, 0xFD	; 253
    1954:	88 83       	st	Y, r24
    1956:	00 84       	ldd	r0, Z+8	; 0x08
    1958:	f1 85       	ldd	r31, Z+9	; 0x09
    195a:	e0 2d       	mov	r30, r0
    195c:	80 81       	ld	r24, Z
    195e:	8e 7f       	andi	r24, 0xFE	; 254
    1960:	80 83       	st	Z, r24
    1962:	12 c0       	rjmp	.+36     	; 0x1988 <TIM_Start+0x230>
    1964:	ef e6       	ldi	r30, 0x6F	; 111
    1966:	f1 e0       	ldi	r31, 0x01	; 1
    1968:	c0 85       	ldd	r28, Z+8	; 0x08
    196a:	d1 85       	ldd	r29, Z+9	; 0x09
    196c:	88 81       	ld	r24, Y
    196e:	84 60       	ori	r24, 0x04	; 4
    1970:	88 83       	st	Y, r24
    1972:	c0 85       	ldd	r28, Z+8	; 0x08
    1974:	d1 85       	ldd	r29, Z+9	; 0x09
    1976:	88 81       	ld	r24, Y
    1978:	8d 7f       	andi	r24, 0xFD	; 253
    197a:	88 83       	st	Y, r24
    197c:	00 84       	ldd	r0, Z+8	; 0x08
    197e:	f1 85       	ldd	r31, Z+9	; 0x09
    1980:	e0 2d       	mov	r30, r0
    1982:	80 81       	ld	r24, Z
    1984:	81 60       	ori	r24, 0x01	; 1
    1986:	80 83       	st	Z, r24
    1988:	ef e6       	ldi	r30, 0x6F	; 111
    198a:	f1 e0       	ldi	r31, 0x01	; 1
    198c:	c2 85       	ldd	r28, Z+10	; 0x0a
    198e:	d3 85       	ldd	r29, Z+11	; 0x0b
    1990:	17 96       	adiw	r26, 0x07	; 7
    1992:	8c 91       	ld	r24, X
    1994:	17 97       	sbiw	r26, 0x07	; 7
    1996:	88 83       	st	Y, r24
    1998:	04 84       	ldd	r0, Z+12	; 0x0c
    199a:	f5 85       	ldd	r31, Z+13	; 0x0d
    199c:	e0 2d       	mov	r30, r0
    199e:	19 96       	adiw	r26, 0x09	; 9
    19a0:	8c 91       	ld	r24, X
    19a2:	80 83       	st	Z, r24
    19a4:	aa c0       	rjmp	.+340    	; 0x1afa <TIM_Start+0x3a2>
    19a6:	81 30       	cpi	r24, 0x01	; 1
    19a8:	09 f4       	brne	.+2      	; 0x19ac <TIM_Start+0x254>
    19aa:	8d c0       	rjmp	.+282    	; 0x1ac6 <TIM_Start+0x36e>
    19ac:	83 30       	cpi	r24, 0x03	; 3
    19ae:	09 f0       	breq	.+2      	; 0x19b2 <TIM_Start+0x25a>
    19b0:	a4 c0       	rjmp	.+328    	; 0x1afa <TIM_Start+0x3a2>
    19b2:	8c c0       	rjmp	.+280    	; 0x1acc <TIM_Start+0x374>
    19b4:	c2 81       	ldd	r28, Z+2	; 0x02
    19b6:	d3 81       	ldd	r29, Z+3	; 0x03
    19b8:	88 81       	ld	r24, Y
    19ba:	8b 7f       	andi	r24, 0xFB	; 251
    19bc:	88 83       	st	Y, r24
    19be:	c2 81       	ldd	r28, Z+2	; 0x02
    19c0:	d3 81       	ldd	r29, Z+3	; 0x03
    19c2:	88 81       	ld	r24, Y
    19c4:	8d 7f       	andi	r24, 0xFD	; 253
    19c6:	88 83       	st	Y, r24
    19c8:	c2 81       	ldd	r28, Z+2	; 0x02
    19ca:	d3 81       	ldd	r29, Z+3	; 0x03
    19cc:	88 81       	ld	r24, Y
    19ce:	81 60       	ori	r24, 0x01	; 1
    19d0:	88 83       	st	Y, r24
    19d2:	3f c0       	rjmp	.+126    	; 0x1a52 <TIM_Start+0x2fa>
    19d4:	c2 81       	ldd	r28, Z+2	; 0x02
    19d6:	d3 81       	ldd	r29, Z+3	; 0x03
    19d8:	88 81       	ld	r24, Y
    19da:	8b 7f       	andi	r24, 0xFB	; 251
    19dc:	88 83       	st	Y, r24
    19de:	c2 81       	ldd	r28, Z+2	; 0x02
    19e0:	d3 81       	ldd	r29, Z+3	; 0x03
    19e2:	88 81       	ld	r24, Y
    19e4:	82 60       	ori	r24, 0x02	; 2
    19e6:	88 83       	st	Y, r24
    19e8:	c2 81       	ldd	r28, Z+2	; 0x02
    19ea:	d3 81       	ldd	r29, Z+3	; 0x03
    19ec:	88 81       	ld	r24, Y
    19ee:	8e 7f       	andi	r24, 0xFE	; 254
    19f0:	88 83       	st	Y, r24
    19f2:	2f c0       	rjmp	.+94     	; 0x1a52 <TIM_Start+0x2fa>
    19f4:	c2 81       	ldd	r28, Z+2	; 0x02
    19f6:	d3 81       	ldd	r29, Z+3	; 0x03
    19f8:	88 81       	ld	r24, Y
    19fa:	8b 7f       	andi	r24, 0xFB	; 251
    19fc:	88 83       	st	Y, r24
    19fe:	c2 81       	ldd	r28, Z+2	; 0x02
    1a00:	d3 81       	ldd	r29, Z+3	; 0x03
    1a02:	88 81       	ld	r24, Y
    1a04:	82 60       	ori	r24, 0x02	; 2
    1a06:	88 83       	st	Y, r24
    1a08:	c2 81       	ldd	r28, Z+2	; 0x02
    1a0a:	d3 81       	ldd	r29, Z+3	; 0x03
    1a0c:	88 81       	ld	r24, Y
    1a0e:	81 60       	ori	r24, 0x01	; 1
    1a10:	88 83       	st	Y, r24
    1a12:	1f c0       	rjmp	.+62     	; 0x1a52 <TIM_Start+0x2fa>
    1a14:	c2 81       	ldd	r28, Z+2	; 0x02
    1a16:	d3 81       	ldd	r29, Z+3	; 0x03
    1a18:	88 81       	ld	r24, Y
    1a1a:	84 60       	ori	r24, 0x04	; 4
    1a1c:	88 83       	st	Y, r24
    1a1e:	c2 81       	ldd	r28, Z+2	; 0x02
    1a20:	d3 81       	ldd	r29, Z+3	; 0x03
    1a22:	88 81       	ld	r24, Y
    1a24:	8d 7f       	andi	r24, 0xFD	; 253
    1a26:	88 83       	st	Y, r24
    1a28:	c2 81       	ldd	r28, Z+2	; 0x02
    1a2a:	d3 81       	ldd	r29, Z+3	; 0x03
    1a2c:	88 81       	ld	r24, Y
    1a2e:	8e 7f       	andi	r24, 0xFE	; 254
    1a30:	88 83       	st	Y, r24
    1a32:	0f c0       	rjmp	.+30     	; 0x1a52 <TIM_Start+0x2fa>
    1a34:	c2 81       	ldd	r28, Z+2	; 0x02
    1a36:	d3 81       	ldd	r29, Z+3	; 0x03
    1a38:	88 81       	ld	r24, Y
    1a3a:	84 60       	ori	r24, 0x04	; 4
    1a3c:	88 83       	st	Y, r24
    1a3e:	c2 81       	ldd	r28, Z+2	; 0x02
    1a40:	d3 81       	ldd	r29, Z+3	; 0x03
    1a42:	88 81       	ld	r24, Y
    1a44:	8d 7f       	andi	r24, 0xFD	; 253
    1a46:	88 83       	st	Y, r24
    1a48:	c2 81       	ldd	r28, Z+2	; 0x02
    1a4a:	d3 81       	ldd	r29, Z+3	; 0x03
    1a4c:	88 81       	ld	r24, Y
    1a4e:	81 60       	ori	r24, 0x01	; 1
    1a50:	88 83       	st	Y, r24
    1a52:	c0 85       	ldd	r28, Z+8	; 0x08
    1a54:	d1 85       	ldd	r29, Z+9	; 0x09
    1a56:	18 96       	adiw	r26, 0x08	; 8
    1a58:	8c 91       	ld	r24, X
    1a5a:	18 97       	sbiw	r26, 0x08	; 8
    1a5c:	88 83       	st	Y, r24
    1a5e:	c6 81       	ldd	r28, Z+6	; 0x06
    1a60:	d7 81       	ldd	r29, Z+7	; 0x07
    1a62:	17 96       	adiw	r26, 0x07	; 7
    1a64:	8c 91       	ld	r24, X
    1a66:	17 97       	sbiw	r26, 0x07	; 7
    1a68:	88 83       	st	Y, r24
    1a6a:	c4 89       	ldd	r28, Z+20	; 0x14
    1a6c:	d5 89       	ldd	r29, Z+21	; 0x15
    1a6e:	1c 96       	adiw	r26, 0x0c	; 12
    1a70:	8c 91       	ld	r24, X
    1a72:	1c 97       	sbiw	r26, 0x0c	; 12
    1a74:	88 83       	st	Y, r24
    1a76:	c2 89       	ldd	r28, Z+18	; 0x12
    1a78:	d3 89       	ldd	r29, Z+19	; 0x13
    1a7a:	1b 96       	adiw	r26, 0x0b	; 11
    1a7c:	8c 91       	ld	r24, X
    1a7e:	1b 97       	sbiw	r26, 0x0b	; 11
    1a80:	88 83       	st	Y, r24
    1a82:	16 96       	adiw	r26, 0x06	; 6
    1a84:	8c 91       	ld	r24, X
    1a86:	16 97       	sbiw	r26, 0x06	; 6
    1a88:	81 30       	cpi	r24, 0x01	; 1
    1a8a:	19 f0       	breq	.+6      	; 0x1a92 <TIM_Start+0x33a>
    1a8c:	82 30       	cpi	r24, 0x02	; 2
    1a8e:	71 f0       	breq	.+28     	; 0x1aac <TIM_Start+0x354>
    1a90:	34 c0       	rjmp	.+104    	; 0x1afa <TIM_Start+0x3a2>
    1a92:	c4 85       	ldd	r28, Z+12	; 0x0c
    1a94:	d5 85       	ldd	r29, Z+13	; 0x0d
    1a96:	1a 96       	adiw	r26, 0x0a	; 10
    1a98:	8c 91       	ld	r24, X
    1a9a:	1a 97       	sbiw	r26, 0x0a	; 10
    1a9c:	88 83       	st	Y, r24
    1a9e:	02 84       	ldd	r0, Z+10	; 0x0a
    1aa0:	f3 85       	ldd	r31, Z+11	; 0x0b
    1aa2:	e0 2d       	mov	r30, r0
    1aa4:	19 96       	adiw	r26, 0x09	; 9
    1aa6:	8c 91       	ld	r24, X
    1aa8:	80 83       	st	Z, r24
    1aaa:	27 c0       	rjmp	.+78     	; 0x1afa <TIM_Start+0x3a2>
    1aac:	c0 89       	ldd	r28, Z+16	; 0x10
    1aae:	d1 89       	ldd	r29, Z+17	; 0x11
    1ab0:	1a 96       	adiw	r26, 0x0a	; 10
    1ab2:	8c 91       	ld	r24, X
    1ab4:	1a 97       	sbiw	r26, 0x0a	; 10
    1ab6:	88 83       	st	Y, r24
    1ab8:	06 84       	ldd	r0, Z+14	; 0x0e
    1aba:	f7 85       	ldd	r31, Z+15	; 0x0f
    1abc:	e0 2d       	mov	r30, r0
    1abe:	19 96       	adiw	r26, 0x09	; 9
    1ac0:	8c 91       	ld	r24, X
    1ac2:	80 83       	st	Z, r24
    1ac4:	1a c0       	rjmp	.+52     	; 0x1afa <TIM_Start+0x3a2>
    1ac6:	e3 e4       	ldi	r30, 0x43	; 67
    1ac8:	f1 e0       	ldi	r31, 0x01	; 1
    1aca:	02 c0       	rjmp	.+4      	; 0x1ad0 <TIM_Start+0x378>
    1acc:	e9 e5       	ldi	r30, 0x59	; 89
    1ace:	f1 e0       	ldi	r31, 0x01	; 1
    1ad0:	12 96       	adiw	r26, 0x02	; 2
    1ad2:	8c 91       	ld	r24, X
    1ad4:	12 97       	sbiw	r26, 0x02	; 2
    1ad6:	83 30       	cpi	r24, 0x03	; 3
    1ad8:	09 f4       	brne	.+2      	; 0x1adc <TIM_Start+0x384>
    1ada:	8c cf       	rjmp	.-232    	; 0x19f4 <TIM_Start+0x29c>
    1adc:	38 f4       	brcc	.+14     	; 0x1aec <TIM_Start+0x394>
    1ade:	88 23       	and	r24, r24
    1ae0:	09 f4       	brne	.+2      	; 0x1ae4 <TIM_Start+0x38c>
    1ae2:	68 cf       	rjmp	.-304    	; 0x19b4 <TIM_Start+0x25c>
    1ae4:	81 30       	cpi	r24, 0x01	; 1
    1ae6:	09 f4       	brne	.+2      	; 0x1aea <TIM_Start+0x392>
    1ae8:	75 cf       	rjmp	.-278    	; 0x19d4 <TIM_Start+0x27c>
    1aea:	b3 cf       	rjmp	.-154    	; 0x1a52 <TIM_Start+0x2fa>
    1aec:	85 30       	cpi	r24, 0x05	; 5
    1aee:	09 f4       	brne	.+2      	; 0x1af2 <TIM_Start+0x39a>
    1af0:	91 cf       	rjmp	.-222    	; 0x1a14 <TIM_Start+0x2bc>
    1af2:	86 30       	cpi	r24, 0x06	; 6
    1af4:	09 f4       	brne	.+2      	; 0x1af8 <TIM_Start+0x3a0>
    1af6:	9e cf       	rjmp	.-196    	; 0x1a34 <TIM_Start+0x2dc>
    1af8:	ac cf       	rjmp	.-168    	; 0x1a52 <TIM_Start+0x2fa>
    1afa:	80 e0       	ldi	r24, 0x00	; 0
    1afc:	df 91       	pop	r29
    1afe:	cf 91       	pop	r28
    1b00:	08 95       	ret

00001b02 <TIM0_OVF_IRQHandler>:
    1b02:	0c 94 0c 04 	jmp	0x818	; 0x818 <TIM0_OVF_ElapsedCallback>
    1b06:	08 95       	ret

00001b08 <TIM2_OVF_IRQHandler>:
    1b08:	0c 94 2a 04 	jmp	0x854	; 0x854 <TIM2_OVF_ElapsedCallback>
    1b0c:	08 95       	ret

00001b0e <TIM0_OC_ElapsedCallback>:
__attribute__((weak)) void TIM3_OVF_ElapsedCallback(TIM_HandleTypeDef *htim)
{
	return;
}
__attribute__((weak)) void TIM0_OC_ElapsedCallback(TIM_HandleTypeDef *htim)
{
    1b0e:	08 95       	ret

00001b10 <TIM0_OC_IRQHandler>:
	TIM3_OVF_ElapsedCallback(htim);
}

void TIM0_OC_IRQHandler(TIM_HandleTypeDef *htim)
{
	TIM0_OC_ElapsedCallback(htim);
    1b10:	fe cf       	rjmp	.-4      	; 0x1b0e <TIM0_OC_ElapsedCallback>
    1b12:	08 95       	ret

00001b14 <TIM2_OC_ElapsedCallback>:
__attribute__((weak)) void TIM0_OC_ElapsedCallback(TIM_HandleTypeDef *htim)
{
	return;
}
__attribute__((weak)) void TIM2_OC_ElapsedCallback(TIM_HandleTypeDef *htim)
{
    1b14:	08 95       	ret

00001b16 <TIM2_OC_IRQHandler>:
	TIM0_OC_ElapsedCallback(htim);
}

void TIM2_OC_IRQHandler(TIM_HandleTypeDef *htim)
{
	TIM2_OC_ElapsedCallback(htim);
    1b16:	fe cf       	rjmp	.-4      	; 0x1b14 <TIM2_OC_ElapsedCallback>
    1b18:	08 95       	ret

00001b1a <UART_Receive>:
{
	return;
}

__attribute__((weak)) void UART_RxCpltCallback(UART_HandleTypeDef *huart)
{
    1b1a:	af 92       	push	r10
    1b1c:	bf 92       	push	r11
    1b1e:	cf 92       	push	r12
    1b20:	df 92       	push	r13
    1b22:	ef 92       	push	r14
    1b24:	ff 92       	push	r15
    1b26:	0f 93       	push	r16
    1b28:	1f 93       	push	r17
    1b2a:	cf 93       	push	r28
    1b2c:	df 93       	push	r29
    1b2e:	8c 01       	movw	r16, r24
    1b30:	ec 01       	movw	r28, r24
    1b32:	88 81       	ld	r24, Y
    1b34:	90 e0       	ldi	r25, 0x00	; 0
    1b36:	1e 8a       	std	Y+22, r1	; 0x16
    1b38:	59 8b       	std	Y+17, r21	; 0x11
    1b3a:	48 8b       	std	Y+16, r20	; 0x10
    1b3c:	5d 8b       	std	Y+21, r21	; 0x15
    1b3e:	4c 8b       	std	Y+20, r20	; 0x14
    1b40:	2d 81       	ldd	r18, Y+5	; 0x05
    1b42:	24 30       	cpi	r18, 0x04	; 4
    1b44:	41 f4       	brne	.+16     	; 0x1b56 <UART_Receive+0x3c>
    1b46:	2f 81       	ldd	r18, Y+7	; 0x07
    1b48:	21 11       	cpse	r18, r1
    1b4a:	08 c0       	rjmp	.+16     	; 0x1b5c <UART_Receive+0x42>
    1b4c:	e6 2e       	mov	r14, r22
    1b4e:	f7 2e       	mov	r15, r23
    1b50:	60 e0       	ldi	r22, 0x00	; 0
    1b52:	70 e0       	ldi	r23, 0x00	; 0
    1b54:	05 c0       	rjmp	.+10     	; 0x1b60 <UART_Receive+0x46>
    1b56:	e1 2c       	mov	r14, r1
    1b58:	f1 2c       	mov	r15, r1
    1b5a:	02 c0       	rjmp	.+4      	; 0x1b60 <UART_Receive+0x46>
    1b5c:	e1 2c       	mov	r14, r1
    1b5e:	f1 2c       	mov	r15, r1
    1b60:	f8 01       	movw	r30, r16
    1b62:	22 89       	ldd	r18, Z+18	; 0x12
    1b64:	33 89       	ldd	r19, Z+19	; 0x13
    1b66:	23 2b       	or	r18, r19
    1b68:	d9 f1       	breq	.+118    	; 0x1be0 <UART_Receive+0xc6>
    1b6a:	a6 2e       	mov	r10, r22
    1b6c:	b7 2e       	mov	r11, r23
    1b6e:	d7 01       	movw	r26, r14
    1b70:	40 e0       	ldi	r20, 0x00	; 0
    1b72:	50 e0       	ldi	r21, 0x00	; 0
    1b74:	bc 01       	movw	r22, r24
    1b76:	66 0f       	add	r22, r22
    1b78:	77 1f       	adc	r23, r23
    1b7a:	68 0f       	add	r22, r24
    1b7c:	79 1f       	adc	r23, r25
    1b7e:	66 0f       	add	r22, r22
    1b80:	77 1f       	adc	r23, r23
    1b82:	66 0f       	add	r22, r22
    1b84:	77 1f       	adc	r23, r23
    1b86:	61 58       	subi	r22, 0x81	; 129
    1b88:	7e 4f       	sbci	r23, 0xFE	; 254
    1b8a:	6b 01       	movw	r12, r22
    1b8c:	f2 e0       	ldi	r31, 0x02	; 2
    1b8e:	cf 0e       	add	r12, r31
    1b90:	d1 1c       	adc	r13, r1
    1b92:	e6 01       	movw	r28, r12
    1b94:	e8 81       	ld	r30, Y
    1b96:	f9 81       	ldd	r31, Y+1	; 0x01
    1b98:	90 81       	ld	r25, Z
    1b9a:	99 23       	and	r25, r25
    1b9c:	1c f0       	brlt	.+6      	; 0x1ba4 <UART_Receive+0x8a>
    1b9e:	90 81       	ld	r25, Z
    1ba0:	95 ff       	sbrs	r25, 5
    1ba2:	fa cf       	rjmp	.-12     	; 0x1b98 <UART_Receive+0x7e>
    1ba4:	e1 14       	cp	r14, r1
    1ba6:	f1 04       	cpc	r15, r1
    1ba8:	39 f4       	brne	.+14     	; 0x1bb8 <UART_Receive+0x9e>
    1baa:	eb 01       	movw	r28, r22
    1bac:	e8 81       	ld	r30, Y
    1bae:	f9 81       	ldd	r31, Y+1	; 0x01
    1bb0:	80 81       	ld	r24, Z
    1bb2:	f5 01       	movw	r30, r10
    1bb4:	80 83       	st	Z, r24
    1bb6:	08 c0       	rjmp	.+16     	; 0x1bc8 <UART_Receive+0xae>
    1bb8:	eb 01       	movw	r28, r22
    1bba:	e8 81       	ld	r30, Y
    1bbc:	f9 81       	ldd	r31, Y+1	; 0x01
    1bbe:	20 81       	ld	r18, Z
    1bc0:	30 e0       	ldi	r19, 0x00	; 0
    1bc2:	11 96       	adiw	r26, 0x01	; 1
    1bc4:	3c 93       	st	X, r19
    1bc6:	2e 93       	st	-X, r18
    1bc8:	4f 5f       	subi	r20, 0xFF	; 255
    1bca:	5f 4f       	sbci	r21, 0xFF	; 255
    1bcc:	df ef       	ldi	r29, 0xFF	; 255
    1bce:	ad 1a       	sub	r10, r29
    1bd0:	bd 0a       	sbc	r11, r29
    1bd2:	12 96       	adiw	r26, 0x02	; 2
    1bd4:	f8 01       	movw	r30, r16
    1bd6:	82 89       	ldd	r24, Z+18	; 0x12
    1bd8:	93 89       	ldd	r25, Z+19	; 0x13
    1bda:	48 17       	cp	r20, r24
    1bdc:	59 07       	cpc	r21, r25
    1bde:	c8 f2       	brcs	.-78     	; 0x1b92 <UART_Receive+0x78>
    1be0:	80 e0       	ldi	r24, 0x00	; 0
    1be2:	df 91       	pop	r29
    1be4:	cf 91       	pop	r28
    1be6:	1f 91       	pop	r17
    1be8:	0f 91       	pop	r16
    1bea:	ff 90       	pop	r15
    1bec:	ef 90       	pop	r14
    1bee:	df 90       	pop	r13
    1bf0:	cf 90       	pop	r12
    1bf2:	bf 90       	pop	r11
    1bf4:	af 90       	pop	r10
    1bf6:	08 95       	ret

00001bf8 <UART_TxIRQHandler>:
    1bf8:	0c 94 4a 04 	jmp	0x894	; 0x894 <UART_TxCpltCallback>
    1bfc:	08 95       	ret

00001bfe <UART_RxIRQHandler>:
{
	UART_TxCpltCallback(huart);
}

void UART_RxIRQHandler(UART_HandleTypeDef *huart)
{
    1bfe:	0f 93       	push	r16
    1c00:	1f 93       	push	r17
    1c02:	cf 93       	push	r28
    1c04:	df 93       	push	r29
    1c06:	ec 01       	movw	r28, r24
	UART_Receive(huart, huart->pRxBuffPtr, huart->RxXferSize, 100);
    1c08:	48 89       	ldd	r20, Y+16	; 0x10
    1c0a:	59 89       	ldd	r21, Y+17	; 0x11
    1c0c:	6c 85       	ldd	r22, Y+12	; 0x0c
    1c0e:	7d 85       	ldd	r23, Y+13	; 0x0d
    1c10:	04 e6       	ldi	r16, 0x64	; 100
    1c12:	10 e0       	ldi	r17, 0x00	; 0
    1c14:	20 e0       	ldi	r18, 0x00	; 0
    1c16:	30 e0       	ldi	r19, 0x00	; 0
    1c18:	80 df       	rcall	.-256    	; 0x1b1a <UART_Receive>
	UART_RxCpltCallback(huart);
    1c1a:	ce 01       	movw	r24, r28
    1c1c:	0e 94 4b 04 	call	0x896	; 0x896 <UART_RxCpltCallback>
}
    1c20:	df 91       	pop	r29
    1c22:	cf 91       	pop	r28
    1c24:	1f 91       	pop	r17
    1c26:	0f 91       	pop	r16
    1c28:	08 95       	ret

00001c2a <main>:
#include "main.h"


int main(void)
{
    hwInit();
    1c2a:	0e 94 59 04 	call	0x8b2	; 0x8b2 <hwInit>
	apInit();
    1c2e:	0e 94 98 00 	call	0x130	; 0x130 <apInit>
	
	apMain();
    1c32:	0e 94 a2 00 	call	0x144	; 0x144 <apMain>
}
    1c36:	80 e0       	ldi	r24, 0x00	; 0
    1c38:	90 e0       	ldi	r25, 0x00	; 0
    1c3a:	08 95       	ret

00001c3c <__udivmodsi4>:
    1c3c:	a1 e2       	ldi	r26, 0x21	; 33
    1c3e:	1a 2e       	mov	r1, r26
    1c40:	aa 1b       	sub	r26, r26
    1c42:	bb 1b       	sub	r27, r27
    1c44:	fd 01       	movw	r30, r26
    1c46:	0d c0       	rjmp	.+26     	; 0x1c62 <__udivmodsi4_ep>

00001c48 <__udivmodsi4_loop>:
    1c48:	aa 1f       	adc	r26, r26
    1c4a:	bb 1f       	adc	r27, r27
    1c4c:	ee 1f       	adc	r30, r30
    1c4e:	ff 1f       	adc	r31, r31
    1c50:	a2 17       	cp	r26, r18
    1c52:	b3 07       	cpc	r27, r19
    1c54:	e4 07       	cpc	r30, r20
    1c56:	f5 07       	cpc	r31, r21
    1c58:	20 f0       	brcs	.+8      	; 0x1c62 <__udivmodsi4_ep>
    1c5a:	a2 1b       	sub	r26, r18
    1c5c:	b3 0b       	sbc	r27, r19
    1c5e:	e4 0b       	sbc	r30, r20
    1c60:	f5 0b       	sbc	r31, r21

00001c62 <__udivmodsi4_ep>:
    1c62:	66 1f       	adc	r22, r22
    1c64:	77 1f       	adc	r23, r23
    1c66:	88 1f       	adc	r24, r24
    1c68:	99 1f       	adc	r25, r25
    1c6a:	1a 94       	dec	r1
    1c6c:	69 f7       	brne	.-38     	; 0x1c48 <__udivmodsi4_loop>
    1c6e:	60 95       	com	r22
    1c70:	70 95       	com	r23
    1c72:	80 95       	com	r24
    1c74:	90 95       	com	r25
    1c76:	9b 01       	movw	r18, r22
    1c78:	ac 01       	movw	r20, r24
    1c7a:	bd 01       	movw	r22, r26
    1c7c:	cf 01       	movw	r24, r30
    1c7e:	08 95       	ret

00001c80 <__tablejump2__>:
    1c80:	ee 0f       	add	r30, r30
    1c82:	ff 1f       	adc	r31, r31
    1c84:	00 24       	eor	r0, r0
    1c86:	00 1c       	adc	r0, r0
    1c88:	0b be       	out	0x3b, r0	; 59
    1c8a:	07 90       	elpm	r0, Z+
    1c8c:	f6 91       	elpm	r31, Z
    1c8e:	e0 2d       	mov	r30, r0
    1c90:	09 94       	ijmp

00001c92 <_exit>:
    1c92:	f8 94       	cli

00001c94 <__stop_program>:
    1c94:	ff cf       	rjmp	.-2      	; 0x1c94 <__stop_program>
